###############################################################################
#                                                                             #
# IAR C/C++ Compiler V8.10.3.10338/W32 for 8051         24/Mar/2017  23:00:37 #
# Copyright 2004-2011 IAR Systems AB.                                         #
#                                                                             #
#    Core               =  plain                                              #
#    Code model         =  banked                                             #
#    Data model         =  large                                              #
#    Calling convention =  xdata reentrant                                    #
#    Constant location  =  data_rom                                           #
#    Dptr setup         =  1,16                                               #
#    Source file        =  D:\IAR\ZStack-CC2530-2.5.1a\Projects\zstack\Sample #
#                          s\GenericAppGruopTest\CC2530DB\Coordinator.c       #
#    Command line       =  -f D:\IAR\ZStack-CC2530-2.5.1a\Projects\zstack\Sam #
#                          ples\GenericAppGruopTest\CC2530DB\..\..\..\Tools\C #
#                          C2530DB\f8wCoord.cfg (-DCPU32MHZ                   #
#                          -DROOT=__near_func -DMAC_CFG_APP_PENDING_QUEUE=TRU #
#                          E -DMAC_CFG_TX_DATA_MAX=5 -DMAC_CFG_TX_MAX=8       #
#                          -DMAC_CFG_RX_MAX=5 -DZDO_COORDINATOR -DRTR_NWK)    #
#                          -f D:\IAR\ZStack-CC2530-2.5.1a\Projects\zstack\Sam #
#                          ples\GenericAppGruopTest\CC2530DB\..\..\..\Tools\C #
#                          C2530DB\f8wConfig.cfg (-DZIGBEEPRO -DSECURE=0      #
#                          -DZG_SECURE_DYNAMIC=0 -DREFLECTOR                  #
#                          -DDEFAULT_CHANLIST=0x00000800                      #
#                          -DZDAPP_CONFIG_PAN_ID=0xFF4E                       #
#                          -DNWK_START_DELAY=100 -DEXTENDED_JOINING_RANDOM_MA #
#                          SK=0x007F -DBEACON_REQUEST_DELAY=100               #
#                          -DBEACON_REQ_DELAY_MASK=0x00FF                     #
#                          -DLINK_STATUS_JITTER_MASK=0x007F                   #
#                          -DROUTE_EXPIRY_TIME=30 -DAPSC_ACK_WAIT_DURATION_PO #
#                          LLED=3000 -DNWK_INDIRECT_MSG_TIMEOUT=7             #
#                          -DMAX_RREQ_ENTRIES=8 -DAPSC_MAX_FRAME_RETRIES=3    #
#                          -DNWK_MAX_DATA_RETRIES=2                           #
#                          -DMAX_POLL_FAILURE_RETRIES=2 -DMAX_BCAST=9         #
#                          -DAPS_MAX_GROUPS=16 -DMAX_RTG_ENTRIES=40           #
#                          -DNWK_MAX_BINDING_ENTRIES=4                        #
#                          -DMAX_BINDING_CLUSTER_IDS=4 "-DDEFAULT_KEY={0x01,  #
#                          0x03, 0x05, 0x07, 0x09, 0x0B, 0x0D, 0x0F, 0x00,    #
#                          0x02, 0x04, 0x06, 0x08, 0x0A, 0x0C, 0x0D}"         #
#                          -DMAC_MAX_FRAME_SIZE=116                           #
#                          -DZDNWKMGR_MIN_TRANSMISSIONS=20 "-DCONST=const     #
#                          __code" -DGENERIC=__generic                        #
#                          -DRFD_RCVC_ALWAYS_ON=FALSE -DPOLL_RATE=1000        #
#                          -DQUEUED_POLL_RATE=100 -DRESPONSE_POLL_RATE=100)   #
#                          -DREJOIN_POLL_RATE=440 D:\IAR\ZStack-CC2530-2.5.1a #
#                          \Projects\zstack\Samples\GenericAppGruopTest\CC253 #
#                          0DB\Coordinator.c -D ZTOOL_P1 -D xMT_TASK -D       #
#                          MT_SYS_FUNC -D MT_ZDO_FUNC -D                      #
#                          xLCD_SUPPORTED=DEBUG -lC                           #
#                          D:\IAR\ZStack-CC2530-2.5.1a\Projects\zstack\Sample #
#                          s\GenericAppGruopTest\CC2530DB\CoordinatorEB\List\ #
#                           -lA D:\IAR\ZStack-CC2530-2.5.1a\Projects\zstack\S #
#                          amples\GenericAppGruopTest\CC2530DB\CoordinatorEB\ #
#                          List\ --diag_suppress Pe001,Pa010 -o               #
#                          D:\IAR\ZStack-CC2530-2.5.1a\Projects\zstack\Sample #
#                          s\GenericAppGruopTest\CC2530DB\CoordinatorEB\Obj\  #
#                          -e --no_code_motion --debug --core=plain           #
#                          --dptr=16,1 --data_model=large                     #
#                          --code_model=banked --calling_convention=xdata_ree #
#                          ntrant --place_constants=data_rom                  #
#                          --nr_virtual_regs 16 -I D:\IAR\ZStack-CC2530-2.5.1 #
#                          a\Projects\zstack\Samples\GenericAppGruopTest\CC25 #
#                          30DB\ -I D:\IAR\ZStack-CC2530-2.5.1a\Projects\zsta #
#                          ck\Samples\GenericAppGruopTest\CC2530DB\..\Source\ #
#                           -I D:\IAR\ZStack-CC2530-2.5.1a\Projects\zstack\Sa #
#                          mples\GenericAppGruopTest\CC2530DB\..\..\..\ZMain\ #
#                          TI2530DB\ -I D:\IAR\ZStack-CC2530-2.5.1a\Projects\ #
#                          zstack\Samples\GenericAppGruopTest\CC2530DB\..\..\ #
#                          ..\..\..\Components\hal\include\ -I                #
#                          D:\IAR\ZStack-CC2530-2.5.1a\Projects\zstack\Sample #
#                          s\GenericAppGruopTest\CC2530DB\..\..\..\..\..\Comp #
#                          onents\hal\target\CC2530EB\ -I                     #
#                          D:\IAR\ZStack-CC2530-2.5.1a\Projects\zstack\Sample #
#                          s\GenericAppGruopTest\CC2530DB\..\..\..\..\..\Comp #
#                          onents\mac\include\ -I D:\IAR\ZStack-CC2530-2.5.1a #
#                          \Projects\zstack\Samples\GenericAppGruopTest\CC253 #
#                          0DB\..\..\..\..\..\Components\mac\high_level\ -I   #
#                          D:\IAR\ZStack-CC2530-2.5.1a\Projects\zstack\Sample #
#                          s\GenericAppGruopTest\CC2530DB\..\..\..\..\..\Comp #
#                          onents\mac\low_level\srf04\ -I                     #
#                          D:\IAR\ZStack-CC2530-2.5.1a\Projects\zstack\Sample #
#                          s\GenericAppGruopTest\CC2530DB\..\..\..\..\..\Comp #
#                          onents\mac\low_level\srf04\single_chip\ -I         #
#                          D:\IAR\ZStack-CC2530-2.5.1a\Projects\zstack\Sample #
#                          s\GenericAppGruopTest\CC2530DB\..\..\..\..\..\Comp #
#                          onents\mt\ -I D:\IAR\ZStack-CC2530-2.5.1a\Projects #
#                          \zstack\Samples\GenericAppGruopTest\CC2530DB\..\.. #
#                          \..\..\..\Components\osal\include\ -I              #
#                          D:\IAR\ZStack-CC2530-2.5.1a\Projects\zstack\Sample #
#                          s\GenericAppGruopTest\CC2530DB\..\..\..\..\..\Comp #
#                          onents\services\saddr\ -I                          #
#                          D:\IAR\ZStack-CC2530-2.5.1a\Projects\zstack\Sample #
#                          s\GenericAppGruopTest\CC2530DB\..\..\..\..\..\Comp #
#                          onents\services\sdata\ -I                          #
#                          D:\IAR\ZStack-CC2530-2.5.1a\Projects\zstack\Sample #
#                          s\GenericAppGruopTest\CC2530DB\..\..\..\..\..\Comp #
#                          onents\stack\af\ -I D:\IAR\ZStack-CC2530-2.5.1a\Pr #
#                          ojects\zstack\Samples\GenericAppGruopTest\CC2530DB #
#                          \..\..\..\..\..\Components\stack\nwk\ -I           #
#                          D:\IAR\ZStack-CC2530-2.5.1a\Projects\zstack\Sample #
#                          s\GenericAppGruopTest\CC2530DB\..\..\..\..\..\Comp #
#                          onents\stack\sapi\ -I D:\IAR\ZStack-CC2530-2.5.1a\ #
#                          Projects\zstack\Samples\GenericAppGruopTest\CC2530 #
#                          DB\..\..\..\..\..\Components\stack\sec\ -I         #
#                          D:\IAR\ZStack-CC2530-2.5.1a\Projects\zstack\Sample #
#                          s\GenericAppGruopTest\CC2530DB\..\..\..\..\..\Comp #
#                          onents\stack\sys\ -I D:\IAR\ZStack-CC2530-2.5.1a\P #
#                          rojects\zstack\Samples\GenericAppGruopTest\CC2530D #
#                          B\..\..\..\..\..\Components\stack\zdo\ -I          #
#                          D:\IAR\ZStack-CC2530-2.5.1a\Projects\zstack\Sample #
#                          s\GenericAppGruopTest\CC2530DB\..\..\..\..\..\Comp #
#                          onents\zmac\ -I D:\IAR\ZStack-CC2530-2.5.1a\Projec #
#                          ts\zstack\Samples\GenericAppGruopTest\CC2530DB\..\ #
#                          ..\..\..\..\Components\zmac\f8w\ -Ohz              #
#                          --require_prototypes                               #
#    List file          =  D:\IAR\ZStack-CC2530-2.5.1a\Projects\zstack\Sample #
#                          s\GenericAppGruopTest\CC2530DB\CoordinatorEB\List\ #
#                          Coordinator.lst                                    #
#    Object file        =  D:\IAR\ZStack-CC2530-2.5.1a\Projects\zstack\Sample #
#                          s\GenericAppGruopTest\CC2530DB\CoordinatorEB\Obj\C #
#                          oordinator.r51                                     #
#                                                                             #
#                                                                             #
###############################################################################

D:\IAR\ZStack-CC2530-2.5.1a\Projects\zstack\Samples\GenericAppGruopTest\CC2530DB\Coordinator.c
      1          
      2          /*********************************************************************
      3           * INCLUDES
      4           */
      5          #include "OSAL.h"
      6          #include "AF.h"
      7          #include "ZDApp.h"
      8          #include "ZDObject.h"
      9          #include "ZDProfile.h"
     10          #include "aps_groups.h"
     11          
     12          #include "Coordinator.h"
     13          #include "DebugTrace.h"
     14          
     15          #if !defined( WIN32 )
     16            #include "OnBoard.h"
     17          #endif
     18          
     19          /* HAL */
     20          #include "hal_lcd.h"
     21          #include "hal_led.h"
     22          #include "hal_key.h"
     23          #include "hal_uart.h"
     24          
     25          #define USER_GRUOP_TEST    0x1   // 定义事件
     26          
     27          // This list should be filled with Application specific Cluster IDs.

   \                                 In  segment XDATA_ROM_C, align 1
     28          const cId_t GenericApp_ClusterList[GENERICAPP_MAX_CLUSTERS] =
   \                     GenericApp_ClusterList:
   \   000000   0100         DW 1
     29          {
     30            GENERICAPP_CLUSTERID    // 命令ID
     31          };
     32          
     33          
     34          // 简单描述

   \                                 In  segment XDATA_ROM_C, align 1
     35          const SimpleDescriptionFormat_t GenericApp_SimpleDesc =
   \                     GenericApp_SimpleDesc:
   \   000000   0A           DB 10
   \   000001   040F         DW 3844
   \   000003   0100         DW 1
   \   000005   00           DB 0
   \   000006   01           DB 1
   \   000007   ....         DW GenericApp_ClusterList
   \   000009   00           DB 0
   \   00000A   0000         DW 0H
     36          {
     37            GENERICAPP_ENDPOINT,              //  int Endpoint; 端点号
     38            GENERICAPP_PROFID,                //  uint16 AppProfId[2];
     39            GENERICAPP_DEVICEID,              //  uint16 AppDeviceId[2];
     40            GENERICAPP_DEVICE_VERSION,        //  int   AppDevVer:4;
     41            GENERICAPP_FLAGS,                 //  int   AppFlags:4;
     42            GENERICAPP_MAX_CLUSTERS,          //  输入集群数;
     43            (cId_t *)GenericApp_ClusterList,  //  输入集群;
     44            0,                                //  输出集群数;
     45            (cId_t *)NULL                     // 输出集群;
     46          };
     47          
     48          // This is the Endpoint/Interface description.  It is defined here, but
     49          // filled-in in GenericApp_Init().  Another way to go would be to fill
     50          // in the structure here and make it a "const" (in code space).  The
     51          // way it's defined in this sample app it is define in RAM.
     52          

   \                                 In  segment XDATA_Z, align 1, keep-with-next
     53          endPointDesc_t GenericApp_epDesc;  // 端点描述符
   \                     GenericApp_epDesc:
   \   000000                DS 6
   \   000006                REQUIRE __INIT_XDATA_Z
     54          
     55          
     56          /*********************************************************************
     57           * LOCAL VARIABLES
     58           */
     59          
     60          // 任务ID

   \                                 In  segment XDATA_Z, align 1, keep-with-next
     61          byte GenericApp_TaskID;   // Task ID for internal task/event processing
   \                     GenericApp_TaskID:
   \   000000                DS 1
   \   000001                REQUIRE __INIT_XDATA_Z
     62                                    // This variable will be received when
     63                                    // GenericApp_Init() is called.
     64          // 消息ID

   \                                 In  segment XDATA_Z, align 1, keep-with-next
     65          byte GenericApp_TransID;  // This is the unique message ID (counter)
   \                     GenericApp_TransID:
   \   000000                DS 1
   \   000001                REQUIRE __INIT_XDATA_Z
     66          
     67          // 网络状态

   \                                 In  segment XDATA_Z, align 1, keep-with-next
     68          devStates_t GenericApp_NwkState;
   \                     GenericApp_NwkState:
   \   000000                DS 1
   \   000001                REQUIRE __INIT_XDATA_Z
     69          //InitGroup

   \                                 In  segment XDATA_Z, align 1, keep-with-next
     70          aps_Group_t GenericApp_Group;
   \                     GenericApp_Group:
   \   000000                DS 18
   \   000012                REQUIRE __INIT_XDATA_Z
     71          

   \                                 In  segment XDATA_Z, align 1, keep-with-next
     72          halUARTCfg_t uart0cfg;
   \                     uart0cfg:
   \   000000                DS 29
   \   00001D                REQUIRE __INIT_XDATA_Z
     73          

   \                                 In  segment XDATA_Z, align 1, keep-with-next
     74          int ledFlag = 0;
   \                     ledFlag:
   \   000000                DS 2
   \   000002                REQUIRE __INIT_XDATA_Z
     75          
     76          static void GenericApp_SendTheMessage( void );
     77          static void GenericApp_MessageMSGCB(afIncomingMSGPacket_t *MSGpkt );
     78          /*********************************************************************
     79           * @fn      GenericApp_Init
     80           *
     81           * @brief   Initialization function for the Generic App Task.
     82           *          This is called during initialization and should contain
     83           *          any application specific initialization (ie. hardware
     84           *          initialization/setup, table initialization, power up
     85           *          notificaiton ... ).
     86           *
     87           * @param   task_id - the ID assigned by OSAL.  This ID should be
     88           *                    used to send messages and set timers.
     89           *
     90           * @return  none
     91           */
     92          
     93          // 运用程序初始化函数：osal调用
     94          // task_id是系统分配的任务ID，该任务的优先级。

   \                                 In  segment BANKED_CODE, align 1, keep-with-next
     95          void GenericApp_Init( uint8 task_id )
   \                     GenericApp_Init:
     96          {
   \   000000   74F5         MOV     A,#-0xb
   \   000002   12....       LCALL   ?BANKED_ENTER_XDATA
   \   000005                ; Saved register size: 11
   \   000005                ; Auto size: 0
   \   000005   E9           MOV     A,R1
     97            GenericApp_TaskID = task_id;     // 保存任务ID
   \   000006   90....       MOV     DPTR,#GenericApp_TaskID
   \   000009   F0           MOVX    @DPTR,A
     98            
     99            GenericApp_TransID = 0;
   \   00000A   90....       MOV     DPTR,#GenericApp_TransID
   \   00000D   E4           CLR     A
   \   00000E   F0           MOVX    @DPTR,A
    100          
    101            
    102            // Fill out the endpoint description.  初始化端点描述符
    103            GenericApp_epDesc.endPoint = GENERICAPP_ENDPOINT;
   \   00000F   90....       MOV     DPTR,#GenericApp_epDesc
   \   000012   740A         MOV     A,#0xa
   \   000014   F0           MOVX    @DPTR,A
    104            GenericApp_epDesc.task_id = &GenericApp_TaskID;
   \   000015   A3           INC     DPTR
   \   000016   74..         MOV     A,#GenericApp_TaskID & 0xff
   \   000018   F0           MOVX    @DPTR,A
   \   000019   A3           INC     DPTR
   \   00001A   74..         MOV     A,#(GenericApp_TaskID >> 8) & 0xff
   \   00001C   F0           MOVX    @DPTR,A
    105            GenericApp_epDesc.simpleDesc
    106                      = (SimpleDescriptionFormat_t *)&GenericApp_SimpleDesc;
   \   00001D   A3           INC     DPTR
   \   00001E   74..         MOV     A,#GenericApp_SimpleDesc & 0xff
   \   000020   F0           MOVX    @DPTR,A
   \   000021   A3           INC     DPTR
   \   000022   74..         MOV     A,#(GenericApp_SimpleDesc >> 8) & 0xff
   \   000024   F0           MOVX    @DPTR,A
    107            GenericApp_epDesc.latencyReq = noLatencyReqs;
   \   000025   A3           INC     DPTR
   \   000026   E4           CLR     A
   \   000027   F0           MOVX    @DPTR,A
    108          
    109            // Register the endpoint description with the AF 注册端点
    110            afRegister( &GenericApp_epDesc );
   \   000028                ; Setup parameters for call to function afRegister
   \   000028   7A..         MOV     R2,#GenericApp_epDesc & 0xff
   \   00002A   7B..         MOV     R3,#(GenericApp_epDesc >> 8) & 0xff
   \   00002C   12....       LCALL   ??afRegister?relay
    111            
    112            /*GroupInit*/
    113            GenericApp_Group.ID = 0x0001;
   \   00002F   90....       MOV     DPTR,#GenericApp_Group
   \   000032   7401         MOV     A,#0x1
   \   000034   F0           MOVX    @DPTR,A
   \   000035   A3           INC     DPTR
   \   000036   E4           CLR     A
   \   000037   F0           MOVX    @DPTR,A
    114            GenericApp_Group.name[0] = 6;
   \   000038   A3           INC     DPTR
   \   000039   7406         MOV     A,#0x6
   \   00003B   F0           MOVX    @DPTR,A
    115            osal_memcpy(&(GenericApp_Group.name[1]),"zhongc",6);
   \   00003C                ; Setup parameters for call to function osal_memcpy
   \   00003C   75....       MOV     ?V0 + 0,#`?<Constant "zhongc">` & 0xff
   \   00003F   75....       MOV     ?V0 + 1,#(`?<Constant "zhongc">` >> 8) & 0xff
   \   000042   75..00       MOV     ?V0 + 2,#0x0
   \   000045   78..         MOV     R0,#?V0 + 0
   \   000047   12....       LCALL   ?PUSH_XSTACK_I_THREE
   \   00004A   7C06         MOV     R4,#0x6
   \   00004C   7D00         MOV     R5,#0x0
   \   00004E   7A..         MOV     R2,#(GenericApp_Group + 3) & 0xff
   \   000050   7B..         MOV     R3,#((GenericApp_Group + 3) >> 8) & 0xff
   \   000052   12....       LCALL   ??osal_memcpy?relay
   \   000055   7403         MOV     A,#0x3
   \   000057   12....       LCALL   ?DEALLOC_XSTACK8
    116            aps_AddGroup( GENERICAPP_ENDPOINT, &GenericApp_Group );
   \   00005A                ; Setup parameters for call to function aps_AddGroup
   \   00005A   7A..         MOV     R2,#GenericApp_Group & 0xff
   \   00005C   7B..         MOV     R3,#(GenericApp_Group >> 8) & 0xff
   \   00005E   790A         MOV     R1,#0xa
   \   000060   12....       LCALL   ??aps_AddGroup?relay
    117            
    118            /*OPening UART*/
    119            uart0cfg.configured = TRUE;
   \   000063   90....       MOV     DPTR,#uart0cfg
   \   000066   7401         MOV     A,#0x1
   \   000068   F0           MOVX    @DPTR,A
    120            uart0cfg.baudRate = HAL_UART_BR_115200;
   \   000069   A3           INC     DPTR
   \   00006A   7404         MOV     A,#0x4
   \   00006C   F0           MOVX    @DPTR,A
    121            uart0cfg.flowControl = FALSE;
   \   00006D   A3           INC     DPTR
   \   00006E   E4           CLR     A
   \   00006F   F0           MOVX    @DPTR,A
    122            uart0cfg.callBackFunc = NULL;
   \   000070   90....       MOV     DPTR,#uart0cfg + 27
   \   000073   F0           MOVX    @DPTR,A
   \   000074   A3           INC     DPTR
   \   000075   F0           MOVX    @DPTR,A
    123            
    124            HalUARTOpen (0, &uart0cfg );
   \   000076                ; Setup parameters for call to function HalUARTOpen
   \   000076   7A..         MOV     R2,#uart0cfg & 0xff
   \   000078   7B..         MOV     R3,#(uart0cfg >> 8) & 0xff
   \   00007A   F9           MOV     R1,A
   \   00007B   12....       LCALL   ??HalUARTOpen?relay
    125          }
   \   00007E                REQUIRE ?Subroutine0
   \   00007E                ; // Fall through to label ?Subroutine0

   \                                 In  segment BANKED_CODE, align 1, keep-with-next
   \                     ?Subroutine0:
   \   000000   7F03         MOV     R7,#0x3
   \   000002   02....       LJMP    ?BANKED_LEAVE_XDATA
    126          
    127          /*********************************************************************
    128           * @fn      GenericApp_ProcessEvent
    129           *
    130           * @brief   Generic Application Task event processor.  This function
    131           *          is called to process all events for the task.  Events
    132           *          include timers, messages and any other user defined events.
    133           *
    134           * @param   task_id  - The OSAL assigned task ID.
    135           * @param   events - events to process.  This is a bit map and can
    136           *                   contain more than one event.
    137           *
    138           * @return  none
    139           */

   \                                 In  segment BANKED_CODE, align 1, keep-with-next
    140          uint16 GenericApp_ProcessEvent( uint8 task_id, uint16 events )
   \                     GenericApp_ProcessEvent:
    141          {
   \   000000   74F4         MOV     A,#-0xc
   \   000002   12....       LCALL   ?BANKED_ENTER_XDATA
   \   000005                ; Saved register size: 12
   \   000005                ; Auto size: 15
   \   000005   74F1         MOV     A,#-0xf
   \   000007   12....       LCALL   ?ALLOC_XSTACK8
   \   00000A   EA           MOV     A,R2
   \   00000B   FE           MOV     R6,A
   \   00000C   EB           MOV     A,R3
   \   00000D   FF           MOV     R7,A
    142            afIncomingMSGPacket_t *MSGpkt;   //  消息包类型
    143            
    144            if ( events & SYS_EVENT_MSG )   // 判断该事件是否是系统事件
   \   00000E   5480         ANL     A,#0x80
   \   000010   6069         JZ      ??GenericApp_ProcessEvent_0
    145            {
    146              // 读取该事件
    147              MSGpkt = (afIncomingMSGPacket_t *)osal_msg_receive( GenericApp_TaskID );
   \   000012                ; Setup parameters for call to function osal_msg_receive
   \   000012   800E         SJMP    ??GenericApp_ProcessEvent_1
    148              while ( MSGpkt )
    149              {
    150                // 识别是哪种系统消息
    151                switch ( MSGpkt->hdr.event )
    152                {    
    153                   case ZDO_STATE_CHANGE:   // 判断网络状态是否改变
    154                    GenericApp_NwkState = (devStates_t)(MSGpkt->hdr.status);
    155                    if ((GenericApp_NwkState == DEV_ZB_COORD)
    156                        || (GenericApp_NwkState == DEV_ROUTER)
    157                        || (GenericApp_NwkState == DEV_END_DEVICE) )   
    158                    {
    159                      // 启动用户事件
    160                      //osal_set_event(GenericApp_TaskID, USER_GRUOP_TEST);
    161                      osal_start_timerEx(GenericApp_TaskID, USER_GRUOP_TEST, 5000);
    162                      aps_AddGroup(GENERICAPP_ENDPOINT, &GenericApp_Group);
    163                    }  
    164                    break;
    165                   case AF_INCOMING_MSG_CMD:
    166                    GenericApp_MessageMSGCB( MSGpkt );
   \                     ??GenericApp_ProcessEvent_2:
   \   000014                ; Setup parameters for call to function GenericApp_MessageMSGCB
   \   000014   AA..         MOV     R2,?V0 + 0
   \   000016   AB..         MOV     R3,?V0 + 1
   \   000018   12....       LCALL   ??GenericApp_MessageMSGCB?relay
    167                    break;
    168                  default:
    169                    break;
    170                }
    171          
    172                // Release the memory
    173                osal_msg_deallocate( (uint8 *)MSGpkt );
   \                     ??GenericApp_ProcessEvent_3:
   \   00001B                ; Setup parameters for call to function osal_msg_deallocate
   \   00001B   AA..         MOV     R2,?V0 + 0
   \   00001D   AB..         MOV     R3,?V0 + 1
   \   00001F   12....       LCALL   ??osal_msg_deallocate?relay
    174          
    175                // Next
    176                MSGpkt = (afIncomingMSGPacket_t *)osal_msg_receive( GenericApp_TaskID );
   \   000022                ; Setup parameters for call to function osal_msg_receive
   \                     ??GenericApp_ProcessEvent_1:
   \   000022   90....       MOV     DPTR,#GenericApp_TaskID
   \   000025   E0           MOVX    A,@DPTR
   \   000026   F9           MOV     R1,A
   \   000027   12....       LCALL   ??osal_msg_receive?relay
   \   00002A   8A..         MOV     ?V0 + 0,R2
   \   00002C   8B..         MOV     ?V0 + 1,R3
   \   00002E   E5..         MOV     A,?V0 + 0
   \   000030   45..         ORL     A,?V0 + 1
   \   000032   603E         JZ      ??GenericApp_ProcessEvent_4
   \   000034   85..82       MOV     DPL,?V0 + 0
   \   000037   85..83       MOV     DPH,?V0 + 1
   \   00003A   E0           MOVX    A,@DPTR
   \   00003B   24E6         ADD     A,#-0x1a
   \   00003D   60D5         JZ      ??GenericApp_ProcessEvent_2
   \   00003F   2449         ADD     A,#0x49
   \   000041   70D8         JNZ     ??GenericApp_ProcessEvent_3
   \   000043   A3           INC     DPTR
   \   000044   E0           MOVX    A,@DPTR
   \   000045   90....       MOV     DPTR,#GenericApp_NwkState
   \   000048   F0           MOVX    @DPTR,A
   \   000049   6409         XRL     A,#0x9
   \   00004B   600A         JZ      ??GenericApp_ProcessEvent_5
   \   00004D   E0           MOVX    A,@DPTR
   \   00004E   6407         XRL     A,#0x7
   \   000050   6005         JZ      ??GenericApp_ProcessEvent_5
   \   000052   E0           MOVX    A,@DPTR
   \   000053   6406         XRL     A,#0x6
   \   000055   70C4         JNZ     ??GenericApp_ProcessEvent_3
   \                     ??GenericApp_ProcessEvent_5:
   \   000057                ; Setup parameters for call to function osal_start_timerEx
   \   000057   7C88         MOV     R4,#-0x78
   \   000059   7D13         MOV     R5,#0x13
   \   00005B   7A01         MOV     R2,#0x1
   \   00005D   7B00         MOV     R3,#0x0
   \   00005F   90....       MOV     DPTR,#GenericApp_TaskID
   \   000062   E0           MOVX    A,@DPTR
   \   000063   F9           MOV     R1,A
   \   000064   12....       LCALL   ??osal_start_timerEx?relay
   \   000067                ; Setup parameters for call to function aps_AddGroup
   \   000067   7A..         MOV     R2,#GenericApp_Group & 0xff
   \   000069   7B..         MOV     R3,#(GenericApp_Group >> 8) & 0xff
   \   00006B   790A         MOV     R1,#0xa
   \   00006D   12....       LCALL   ??aps_AddGroup?relay
   \   000070   80A9         SJMP    ??GenericApp_ProcessEvent_3
    177              }
    178          
    179              // return unprocessed events
    180              return (events ^ SYS_EVENT_MSG);
   \                     ??GenericApp_ProcessEvent_4:
   \   000072   EE           MOV     A,R6
   \   000073   FA           MOV     R2,A
   \   000074   EF           MOV     A,R7
   \   000075   6480         XRL     A,#0x80
   \   000077   FB           MOV     R3,A
   \   000078   02....       LJMP    ??GenericApp_ProcessEvent_6 & 0xFFFF
    181            }
    182            /*
    183            if (events & USER_GRUOP_TEST)  // 判断是否是USER_GRUOP_TEST
    184            {
    185                //HalLedBlink(HAL_LED_2, 5, 50, 500);
    186               osal_start_timerEx(GenericApp_TaskID, USER_GRUOP_TEST, 5000);  
    187               GenericApp_SendTheMessage();
    188               return (events ^ USER_GRUOP_TEST);
    189            }*/
    190            if (events & USER_GRUOP_TEST)
   \                     ??GenericApp_ProcessEvent_0:
   \   00007B   EE           MOV     A,R6
   \   00007C   A2E0         MOV     C,0xE0 /* A   */.0
   \   00007E   4003         JC      $+5
   \   000080   02....       LJMP    ??GenericApp_ProcessEvent_7 & 0xFFFF
    191            {
    192              GenericApp_SendTheMessage();
   \   000083   85..82       MOV     DPL,?XSP + 0
   \   000086   85..83       MOV     DPH,?XSP + 1
   \   000089   AC82         MOV     R4,DPL
   \   00008B   AD83         MOV     R5,DPH
   \   00008D   7583..       MOV     DPH,#(`?<Constant "D1">` >> 8) & 0xff
   \   000090   7582..       MOV     DPL,#`?<Constant "D1">` & 0xff
   \   000093   7403         MOV     A,#0x3
   \   000095   12....       LCALL   ?MOVE_LONG8_XDATA_XDATA
   \   000098   90....       MOV     DPTR,#GenericApp_Group
   \   00009B   E0           MOVX    A,@DPTR
   \   00009C   F8           MOV     R0,A
   \   00009D   A3           INC     DPTR
   \   00009E   E0           MOVX    A,@DPTR
   \   00009F   F9           MOV     R1,A
   \   0000A0   7403         MOV     A,#0x3
   \   0000A2   12....       LCALL   ?XSTACK_DISP0_8
   \   0000A5   E8           MOV     A,R0
   \   0000A6   F0           MOVX    @DPTR,A
   \   0000A7   A3           INC     DPTR
   \   0000A8   E9           MOV     A,R1
   \   0000A9   F0           MOVX    @DPTR,A
   \   0000AA   740B         MOV     A,#0xb
   \   0000AC   12....       LCALL   ?XSTACK_DISP0_8
   \   0000AF   7401         MOV     A,#0x1
   \   0000B1   F0           MOVX    @DPTR,A
   \   0000B2   740C         MOV     A,#0xc
   \   0000B4   12....       LCALL   ?XSTACK_DISP0_8
   \   0000B7   740A         MOV     A,#0xa
   \   0000B9   F0           MOVX    @DPTR,A
   \   0000BA                ; Setup parameters for call to function AF_DataRequest
   \   0000BA   75..1E       MOV     ?V0 + 0,#0x1e
   \   0000BD   78..         MOV     R0,#?V0 + 0
   \   0000BF   12....       LCALL   ?PUSH_XSTACK_I_ONE
   \   0000C2   75....       MOV     ?V0 + 0,#GenericApp_TransID & 0xff
   \   0000C5   75....       MOV     ?V0 + 1,#(GenericApp_TransID >> 8) & 0xff
   \   0000C8   78..         MOV     R0,#?V0 + 0
   \   0000CA   12....       LCALL   ?PUSH_XSTACK_I_TWO
   \   0000CD   7403         MOV     A,#0x3
   \   0000CF   12....       LCALL   ?XSTACK_DISP0_8
   \   0000D2   8582..       MOV     ?V0 + 0,DPL
   \   0000D5   8583..       MOV     ?V0 + 1,DPH
   \   0000D8   78..         MOV     R0,#?V0 + 0
   \   0000DA   12....       LCALL   ?PUSH_XSTACK_I_TWO
   \   0000DD                ; Setup parameters for call to function osal_strlen
   \   0000DD   7405         MOV     A,#0x5
   \   0000DF   12....       LCALL   ?XSTACK_DISP0_8
   \   0000E2   AA82         MOV     R2,DPL
   \   0000E4   AB83         MOV     R3,DPH
   \   0000E6   12....       LCALL   ??osal_strlen?relay
   \   0000E9   EA           MOV     A,R2
   \   0000EA   2401         ADD     A,#0x1
   \   0000EC   F5..         MOV     ?V0 + 0,A
   \   0000EE   E4           CLR     A
   \   0000EF   3400         ADDC    A,#0x0
   \   0000F1   F5..         MOV     ?V0 + 1,A
   \   0000F3   78..         MOV     R0,#?V0 + 0
   \   0000F5   12....       LCALL   ?PUSH_XSTACK_I_TWO
   \   0000F8   75..01       MOV     ?V0 + 0,#0x1
   \   0000FB   75..00       MOV     ?V0 + 1,#0x0
   \   0000FE   78..         MOV     R0,#?V0 + 0
   \   000100   12....       LCALL   ?PUSH_XSTACK_I_TWO
   \   000103   7920         MOV     R1,#0x20
   \   000105   7C..         MOV     R4,#GenericApp_epDesc & 0xff
   \   000107   7D..         MOV     R5,#(GenericApp_epDesc >> 8) & 0xff
   \   000109   740C         MOV     A,#0xc
   \   00010B   12....       LCALL   ?XSTACK_DISP0_8
   \   00010E   AA82         MOV     R2,DPL
   \   000110   AB83         MOV     R3,DPH
   \   000112   12....       LCALL   ??AF_DataRequest?relay
   \   000115   7409         MOV     A,#0x9
   \   000117   12....       LCALL   ?DEALLOC_XSTACK8
   \   00011A   E9           MOV     A,R1
   \   00011B   700F         JNZ     ??GenericApp_ProcessEvent_8
   \   00011D                ; Setup parameters for call to function HalLedBlink
   \   00011D   7CE8         MOV     R4,#-0x18
   \   00011F   7D03         MOV     R5,#0x3
   \   000121   7B32         MOV     R3,#0x32
   \   000123   7A00         MOV     R2,#0x0
   \   000125   7902         MOV     R1,#0x2
   \   000127   12....       LCALL   ??HalLedBlink?relay
   \   00012A   8007         SJMP    ??GenericApp_ProcessEvent_9
   \                     ??GenericApp_ProcessEvent_8:
   \   00012C                ; Setup parameters for call to function HalLedSet
   \   00012C   7A01         MOV     R2,#0x1
   \   00012E   7902         MOV     R1,#0x2
   \   000130   12....       LCALL   ??HalLedSet?relay
    193              osal_start_timerEx(GenericApp_TaskID, USER_GRUOP_TEST, 5000);
   \                     ??GenericApp_ProcessEvent_9:
   \   000133                ; Setup parameters for call to function osal_start_timerEx
   \   000133   7C88         MOV     R4,#-0x78
   \   000135   7D13         MOV     R5,#0x13
   \   000137   7A01         MOV     R2,#0x1
   \   000139   7B00         MOV     R3,#0x0
   \   00013B   90....       MOV     DPTR,#GenericApp_TaskID
   \   00013E   E0           MOVX    A,@DPTR
   \   00013F   F9           MOV     R1,A
   \   000140   12....       LCALL   ??osal_start_timerEx?relay
    194            }
    195            // Discard unknown events
    196            return 0;
   \                     ??GenericApp_ProcessEvent_7:
   \   000143   7A00         MOV     R2,#0x0
   \   000145   7B00         MOV     R3,#0x0
   \                     ??GenericApp_ProcessEvent_6:
   \   000147   740F         MOV     A,#0xf
   \   000149   12....       LCALL   ?DEALLOC_XSTACK8
   \   00014C   7F04         MOV     R7,#0x4
   \   00014E   02....       LJMP    ?BANKED_LEAVE_XDATA
    197          }
    198          
    199          static void GenericApp_SendTheMessage( void )
    200          {
    201            char theMessageData[] = "D1";
    202            
    203            // 地址信息
    204            afAddrType_t GenericApp_DstAddr;
    205            GenericApp_DstAddr.addr.shortAddr = GenericApp_Group.ID;   // 协调器的地址
    206            GenericApp_DstAddr.addrMode = (afAddrMode_t)AddrGroup;  // 点对点通信模式
    207            GenericApp_DstAddr.endPoint = GENERICAPP_ENDPOINT;
    208            
    209            if ( AF_DataRequest( &GenericApp_DstAddr, &GenericApp_epDesc,
    210                                 GENERICAPP_CLUSTERID,
    211                                 (byte)osal_strlen( theMessageData ) + 1,
    212                                 (byte *)&theMessageData,
    213                                 &GenericApp_TransID,
    214                                 AF_DISCV_ROUTE, AF_DEFAULT_RADIUS ) == afStatus_SUCCESS )
    215            {
    216              HalLedBlink(HAL_LED_2, 0, 50, 1000);
    217            }
    218            else
    219            {
    220              HalLedSet(HAL_LED_2, HAL_LED_MODE_ON);
    221            }
    222          }
    223          //receive

   \                                 In  segment BANKED_CODE, align 1, keep-with-next
    224          static void GenericApp_MessageMSGCB(afIncomingMSGPacket_t *MSGpkt )
   \                     GenericApp_MessageMSGCB:
    225          {
   \   000000   74F5         MOV     A,#-0xb
   \   000002   12....       LCALL   ?BANKED_ENTER_XDATA
   \   000005                ; Saved register size: 11
   \   000005                ; Auto size: 20
   \   000005   74EC         MOV     A,#-0x14
   \   000007   12....       LCALL   ?ALLOC_XSTACK8
    226            uint8 buffer[20];
    227            
    228            switch(MSGpkt->clusterId)
   \   00000A   8A82         MOV     DPL,R2
   \   00000C   8B83         MOV     DPH,R3
   \   00000E   A3           INC     DPTR
   \   00000F   A3           INC     DPTR
   \   000010   A3           INC     DPTR
   \   000011   A3           INC     DPTR
   \   000012   E0           MOVX    A,@DPTR
   \   000013   6401         XRL     A,#0x1
   \   000015   7002         JNZ     ??GenericApp_MessageMSGCB_0
   \   000017   A3           INC     DPTR
   \   000018   E0           MOVX    A,@DPTR
   \                     ??GenericApp_MessageMSGCB_0:
   \   000019   7059         JNZ     ??GenericApp_MessageMSGCB_1
    229            {
    230              case GENERICAPP_CLUSTERID:
    231                osal_memcpy(buffer,MSGpkt->cmd.Data,MSGpkt->cmd.DataLength);
   \   00001B                ; Setup parameters for call to function osal_memcpy
   \   00001B   EA           MOV     A,R2
   \   00001C   2422         ADD     A,#0x22
   \   00001E   F582         MOV     DPL,A
   \   000020   EB           MOV     A,R3
   \   000021   3400         ADDC    A,#0x0
   \   000023   F583         MOV     DPH,A
   \   000025   E0           MOVX    A,@DPTR
   \   000026   F5..         MOV     ?V0 + 0,A
   \   000028   A3           INC     DPTR
   \   000029   E0           MOVX    A,@DPTR
   \   00002A   F5..         MOV     ?V0 + 1,A
   \   00002C   75..00       MOV     ?V0 + 2,#0x0
   \   00002F   78..         MOV     R0,#?V0 + 0
   \   000031   12....       LCALL   ?PUSH_XSTACK_I_THREE
   \   000034   EA           MOV     A,R2
   \   000035   2420         ADD     A,#0x20
   \   000037   F582         MOV     DPL,A
   \   000039   EB           MOV     A,R3
   \   00003A   3400         ADDC    A,#0x0
   \   00003C   F583         MOV     DPH,A
   \   00003E   E0           MOVX    A,@DPTR
   \   00003F   FC           MOV     R4,A
   \   000040   A3           INC     DPTR
   \   000041   E0           MOVX    A,@DPTR
   \   000042   FD           MOV     R5,A
   \   000043   7403         MOV     A,#0x3
   \   000045   12....       LCALL   ?XSTACK_DISP0_8
   \   000048   AA82         MOV     R2,DPL
   \   00004A   AB83         MOV     R3,DPH
   \   00004C   12....       LCALL   ??osal_memcpy?relay
   \   00004F   7403         MOV     A,#0x3
   \   000051   12....       LCALL   ?DEALLOC_XSTACK8
    232                HalUARTWrite(0, buffer, sizeof(buffer));
   \   000054                ; Setup parameters for call to function HalUARTWrite
   \   000054   7C14         MOV     R4,#0x14
   \   000056   7D00         MOV     R5,#0x0
   \   000058   85..82       MOV     DPL,?XSP + 0
   \   00005B   85..83       MOV     DPH,?XSP + 1
   \   00005E   AA82         MOV     R2,DPL
   \   000060   AB83         MOV     R3,DPH
   \   000062   7900         MOV     R1,#0x0
   \   000064   12....       LCALL   ??HalUARTWrite?relay
    233                HalUARTWrite(0, "\r\n", 2);
   \   000067                ; Setup parameters for call to function HalUARTWrite
   \   000067   7C02         MOV     R4,#0x2
   \   000069   7D00         MOV     R5,#0x0
   \   00006B   7A..         MOV     R2,#`?<Constant "\\r\\n">` & 0xff
   \   00006D   7B..         MOV     R3,#(`?<Constant "\\r\\n">` >> 8) & 0xff
   \   00006F   7900         MOV     R1,#0x0
   \   000071   12....       LCALL   ??HalUARTWrite?relay
    234              break;
    235            } 
    236          }
   \                     ??GenericApp_MessageMSGCB_1:
   \   000074   7414         MOV     A,#0x14
   \   000076   12....       LCALL   ?DEALLOC_XSTACK8
   \   000079   02....       LJMP    ?Subroutine0 & 0xFFFF

   \                                 In  segment BANK_RELAYS, align 1
   \                     ??GenericApp_Init?relay:
   \   000000   12....       LCALL   ?BDISPATCH
   \   000003   ......       DC24    GenericApp_Init

   \                                 In  segment BANK_RELAYS, align 1
   \                     ??GenericApp_ProcessEvent?relay:
   \   000000   12....       LCALL   ?BDISPATCH
   \   000003   ......       DC24    GenericApp_ProcessEvent

   \                                 In  segment BANK_RELAYS, align 1
   \                     ??GenericApp_MessageMSGCB?relay:
   \   000000   12....       LCALL   ?BDISPATCH
   \   000003   ......       DC24    GenericApp_MessageMSGCB

   \                                 In  segment XDATA_ROM_C, align 1
   \                     `?<Constant "zhongc">`:
   \   000000   7A686F6E     DB "zhongc"
   \            676300  

   \                                 In  segment XDATA_ROM_C, align 1
   \                     `?<Constant "D1">`:
   \   000000   443100       DB "D1"

   \                                 In  segment XDATA_ROM_C, align 1
   \                     `?<Constant "\\r\\n">`:
   \   000000   0D0A00       DB "\015\012"
    237          

   Maximum stack usage in bytes:

     Function                     ISTACK PSTACK XSTACK
     --------                     ------ ------ ------
     GenericApp_Init                  0      0     14
       -> afRegister                  0      0     22
       -> osal_memcpy                 0      0     28
       -> aps_AddGroup                0      0     22
       -> HalUARTOpen                 0      0     22
     GenericApp_MessageMSGCB          0      0     61
       -> osal_memcpy                 0      0     68
       -> HalUARTWrite                0      0     62
       -> HalUARTWrite                0      0     62
     GenericApp_ProcessEvent          2      0     36
       -> osal_msg_receive            0      0     54
       -> GenericApp_MessageMSGCB     0      0     54
       -> osal_msg_deallocate         0      0     54
       -> osal_msg_receive            0      0     54
       -> osal_start_timerEx          0      0     54
       -> aps_AddGroup                0      0     54
       -> osal_strlen                 0      0     64
       -> AF_DataRequest              0      0     72
       -> HalLedBlink                 0      0     54
       -> HalLedSet                   0      0     54
       -> osal_start_timerEx          0      0     54


   Segment part sizes:

     Function/Label                  Bytes
     --------------                  -----
     GenericApp_ClusterList             2
     GenericApp_SimpleDesc             12
     GenericApp_epDesc                  6
     GenericApp_TaskID                  1
     GenericApp_TransID                 1
     GenericApp_NwkState                1
     GenericApp_Group                  18
     uart0cfg                          29
     ledFlag                            2
     GenericApp_Init                  126
     ?Subroutine0                       5
     GenericApp_ProcessEvent          337
     GenericApp_MessageMSGCB          124
     ??GenericApp_Init?relay            6
     ??GenericApp_ProcessEvent?relay    6
     ??GenericApp_MessageMSGCB?relay    6
     ?<Constant "zhongc">               7
     ?<Constant "D1">                   3
     ?<Constant "\r\n">                 3

 
 592 bytes in segment BANKED_CODE
  18 bytes in segment BANK_RELAYS
  27 bytes in segment XDATA_ROM_C
  58 bytes in segment XDATA_Z
 
 610 bytes of CODE  memory
  27 bytes of CONST memory
  58 bytes of XDATA memory

Errors: none
Warnings: none
