###############################################################################
#                                                                             #
# IAR C/C++ Compiler V8.10.3.10338/W32 for 8051         21/Mar/2017  16:59:45 #
# Copyright 2004-2011 IAR Systems AB.                                         #
#                                                                             #
#    Core               =  plain                                              #
#    Code model         =  banked                                             #
#    Data model         =  large                                              #
#    Calling convention =  xdata reentrant                                    #
#    Constant location  =  data_rom                                           #
#    Dptr setup         =  1,16                                               #
#    Source file        =  D:\Texas Instruments\ZStack-CC2530-2.5.1a\Projects #
#                          \zstack\Samples\GenericAppUnicast\CC2530DB\Endpoin #
#                          ter.c                                              #
#    Command line       =  -f "D:\Texas Instruments\ZStack-CC2530-2.5.1a\Proj #
#                          ects\zstack\Samples\GenericAppUnicast\CC2530DB\..\ #
#                          ..\..\Tools\CC2530DB\f8wEndev.cfg" (-DCPU32MHZ     #
#                          -DROOT=__near_func -DMAC_CFG_TX_DATA_MAX=3         #
#                          -DMAC_CFG_TX_MAX=6 -DMAC_CFG_RX_MAX=3) -f          #
#                          "D:\Texas Instruments\ZStack-CC2530-2.5.1a\Project #
#                          s\zstack\Samples\GenericAppUnicast\CC2530DB\..\..\ #
#                          ..\Tools\CC2530DB\f8wConfig.cfg" (-DZIGBEEPRO      #
#                          -DSECURE=0 -DZG_SECURE_DYNAMIC=0 -DREFLECTOR       #
#                          -DDEFAULT_CHANLIST=0x00000800                      #
#                          -DZDAPP_CONFIG_PAN_ID=0xFFFF                       #
#                          -DNWK_START_DELAY=100 -DEXTENDED_JOINING_RANDOM_MA #
#                          SK=0x007F -DBEACON_REQUEST_DELAY=100               #
#                          -DBEACON_REQ_DELAY_MASK=0x00FF                     #
#                          -DLINK_STATUS_JITTER_MASK=0x007F                   #
#                          -DROUTE_EXPIRY_TIME=30 -DAPSC_ACK_WAIT_DURATION_PO #
#                          LLED=3000 -DNWK_INDIRECT_MSG_TIMEOUT=7             #
#                          -DMAX_RREQ_ENTRIES=8 -DAPSC_MAX_FRAME_RETRIES=3    #
#                          -DNWK_MAX_DATA_RETRIES=2                           #
#                          -DMAX_POLL_FAILURE_RETRIES=2 -DMAX_BCAST=9         #
#                          -DAPS_MAX_GROUPS=16 -DMAX_RTG_ENTRIES=40           #
#                          -DNWK_MAX_BINDING_ENTRIES=4                        #
#                          -DMAX_BINDING_CLUSTER_IDS=4 "-DDEFAULT_KEY={0x01,  #
#                          0x03, 0x05, 0x07, 0x09, 0x0B, 0x0D, 0x0F, 0x00,    #
#                          0x02, 0x04, 0x06, 0x08, 0x0A, 0x0C, 0x0D}"         #
#                          -DMAC_MAX_FRAME_SIZE=116                           #
#                          -DZDNWKMGR_MIN_TRANSMISSIONS=20 "-DCONST=const     #
#                          __code" -DGENERIC=__generic                        #
#                          -DRFD_RCVC_ALWAYS_ON=FALSE -DPOLL_RATE=1000        #
#                          -DQUEUED_POLL_RATE=100 -DRESPONSE_POLL_RATE=100)   #
#                          -DREJOIN_POLL_RATE=440 "D:\Texas                   #
#                          Instruments\ZStack-CC2530-2.5.1a\Projects\zstack\S #
#                          amples\GenericAppUnicast\CC2530DB\Endpointer.c"    #
#                          -D NWK_AUTO_POLL -D ZTOOL_P1 -D MT_TASK -D         #
#                          MT_SYS_FUNC -D MT_ZDO_FUNC -D LCD_SUPPORTED=DEBUG  #
#                          -D xPOWER_SAVING -lC "D:\Texas                     #
#                          Instruments\ZStack-CC2530-2.5.1a\Projects\zstack\S #
#                          amples\GenericAppUnicast\CC2530DB\EndDeviceEB\List #
#                          \" -lA "D:\Texas Instruments\ZStack-CC2530-2.5.1a\ #
#                          Projects\zstack\Samples\GenericAppUnicast\CC2530DB #
#                          \EndDeviceEB\List\" --diag_suppress Pe001,Pa010    #
#                          -o "D:\Texas Instruments\ZStack-CC2530-2.5.1a\Proj #
#                          ects\zstack\Samples\GenericAppUnicast\CC2530DB\End #
#                          DeviceEB\Obj\" -e --no_code_motion --debug         #
#                          --core=plain --dptr=16,1 --data_model=large        #
#                          --code_model=banked --calling_convention=xdata_ree #
#                          ntrant --place_constants=data_rom                  #
#                          --nr_virtual_regs 16 -I "D:\Texas                  #
#                          Instruments\ZStack-CC2530-2.5.1a\Projects\zstack\S #
#                          amples\GenericAppUnicast\CC2530DB\" -I "D:\Texas   #
#                          Instruments\ZStack-CC2530-2.5.1a\Projects\zstack\S #
#                          amples\GenericAppUnicast\CC2530DB\..\Source\" -I   #
#                          "D:\Texas Instruments\ZStack-CC2530-2.5.1a\Project #
#                          s\zstack\Samples\GenericAppUnicast\CC2530DB\..\..\ #
#                          ..\ZMain\TI2530DB\" -I "D:\Texas                   #
#                          Instruments\ZStack-CC2530-2.5.1a\Projects\zstack\S #
#                          amples\GenericAppUnicast\CC2530DB\..\..\..\..\..\C #
#                          omponents\hal\include\" -I "D:\Texas               #
#                          Instruments\ZStack-CC2530-2.5.1a\Projects\zstack\S #
#                          amples\GenericAppUnicast\CC2530DB\..\..\..\..\..\C #
#                          omponents\hal\target\CC2530EB\" -I "D:\Texas       #
#                          Instruments\ZStack-CC2530-2.5.1a\Projects\zstack\S #
#                          amples\GenericAppUnicast\CC2530DB\..\..\..\..\..\C #
#                          omponents\mac\include\" -I "D:\Texas               #
#                          Instruments\ZStack-CC2530-2.5.1a\Projects\zstack\S #
#                          amples\GenericAppUnicast\CC2530DB\..\..\..\..\..\C #
#                          omponents\mac\high_level\" -I "D:\Texas            #
#                          Instruments\ZStack-CC2530-2.5.1a\Projects\zstack\S #
#                          amples\GenericAppUnicast\CC2530DB\..\..\..\..\..\C #
#                          omponents\mac\low_level\srf04\" -I "D:\Texas       #
#                          Instruments\ZStack-CC2530-2.5.1a\Projects\zstack\S #
#                          amples\GenericAppUnicast\CC2530DB\..\..\..\..\..\C #
#                          omponents\mac\low_level\srf04\single_chip\" -I     #
#                          "D:\Texas Instruments\ZStack-CC2530-2.5.1a\Project #
#                          s\zstack\Samples\GenericAppUnicast\CC2530DB\..\..\ #
#                          ..\..\..\Components\mt\" -I "D:\Texas              #
#                          Instruments\ZStack-CC2530-2.5.1a\Projects\zstack\S #
#                          amples\GenericAppUnicast\CC2530DB\..\..\..\..\..\C #
#                          omponents\osal\include\" -I "D:\Texas              #
#                          Instruments\ZStack-CC2530-2.5.1a\Projects\zstack\S #
#                          amples\GenericAppUnicast\CC2530DB\..\..\..\..\..\C #
#                          omponents\services\saddr\" -I "D:\Texas            #
#                          Instruments\ZStack-CC2530-2.5.1a\Projects\zstack\S #
#                          amples\GenericAppUnicast\CC2530DB\..\..\..\..\..\C #
#                          omponents\services\sdata\" -I "D:\Texas            #
#                          Instruments\ZStack-CC2530-2.5.1a\Projects\zstack\S #
#                          amples\GenericAppUnicast\CC2530DB\..\..\..\..\..\C #
#                          omponents\stack\af\" -I "D:\Texas                  #
#                          Instruments\ZStack-CC2530-2.5.1a\Projects\zstack\S #
#                          amples\GenericAppUnicast\CC2530DB\..\..\..\..\..\C #
#                          omponents\stack\nwk\" -I "D:\Texas                 #
#                          Instruments\ZStack-CC2530-2.5.1a\Projects\zstack\S #
#                          amples\GenericAppUnicast\CC2530DB\..\..\..\..\..\C #
#                          omponents\stack\sapi\" -I "D:\Texas                #
#                          Instruments\ZStack-CC2530-2.5.1a\Projects\zstack\S #
#                          amples\GenericAppUnicast\CC2530DB\..\..\..\..\..\C #
#                          omponents\stack\sec\" -I "D:\Texas                 #
#                          Instruments\ZStack-CC2530-2.5.1a\Projects\zstack\S #
#                          amples\GenericAppUnicast\CC2530DB\..\..\..\..\..\C #
#                          omponents\stack\sys\" -I "D:\Texas                 #
#                          Instruments\ZStack-CC2530-2.5.1a\Projects\zstack\S #
#                          amples\GenericAppUnicast\CC2530DB\..\..\..\..\..\C #
#                          omponents\stack\zdo\" -I "D:\Texas                 #
#                          Instruments\ZStack-CC2530-2.5.1a\Projects\zstack\S #
#                          amples\GenericAppUnicast\CC2530DB\..\..\..\..\..\C #
#                          omponents\zmac\" -I "D:\Texas                      #
#                          Instruments\ZStack-CC2530-2.5.1a\Projects\zstack\S #
#                          amples\GenericAppUnicast\CC2530DB\..\..\..\..\..\C #
#                          omponents\zmac\f8w\" -Ohz --require_prototypes     #
#    List file          =  D:\Texas Instruments\ZStack-CC2530-2.5.1a\Projects #
#                          \zstack\Samples\GenericAppUnicast\CC2530DB\EndDevi #
#                          ceEB\List\Endpointer.lst                           #
#    Object file        =  D:\Texas Instruments\ZStack-CC2530-2.5.1a\Projects #
#                          \zstack\Samples\GenericAppUnicast\CC2530DB\EndDevi #
#                          ceEB\Obj\Endpointer.r51                            #
#                                                                             #
#                                                                             #
###############################################################################

D:\Texas Instruments\ZStack-CC2530-2.5.1a\Projects\zstack\Samples\GenericAppUnicast\CC2530DB\Endpointer.c
      1          
      2          /*********************************************************************
      3           * INCLUDES
      4           */
      5          #include "OSAL.h"
      6          #include "AF.h"
      7          #include "ZDApp.h"
      8          #include "ZDObject.h"
      9          #include "ZDProfile.h"
     10          
     11          #include "Endpointer.h"
     12          #include "DebugTrace.h"
     13          
     14          #if !defined( WIN32 )
     15            #include "OnBoard.h"
     16          #endif
     17          
     18          /* HAL */
     19          #include "hal_lcd.h"
     20          #include "hal_led.h"
     21          #include "hal_key.h"
     22          #include "hal_uart.h"
     23          
     24          
     25          // This list should be filled with Application specific Cluster IDs.

   \                                 In  segment XDATA_ROM_C, align 1
     26          const cId_t GenericApp_ClusterList[GENERICAPP_MAX_CLUSTERS] =
   \                     GenericApp_ClusterList:
   \   000000   0100         DW 1
     27          {
     28            GENERICAPP_CLUSTERID    // 命令ID
     29          };
     30          
     31          
     32          // 简单描述

   \                                 In  segment XDATA_ROM_C, align 1
     33          const SimpleDescriptionFormat_t GenericApp_SimpleDesc =
   \                     GenericApp_SimpleDesc:
   \   000000   0A           DB 10
   \   000001   040F         DW 3844
   \   000003   0100         DW 1
   \   000005   00           DB 0
   \   000006   00           DB 0
   \   000007   0000         DW 0H
   \   000009   01           DB 1
   \   00000A   ....         DW GenericApp_ClusterList
     34          {
     35            GENERICAPP_ENDPOINT,              //  int Endpoint; 端点号
     36            GENERICAPP_PROFID,                //  uint16 AppProfId[2];
     37            GENERICAPP_DEVICEID,              //  uint16 AppDeviceId[2];
     38            GENERICAPP_DEVICE_VERSION,        //  int   AppDevVer:4;
     39            GENERICAPP_FLAGS,                 //  int   AppFlags:4;
     40            0,                                //  输入集群数;
     41            (cId_t *)NULL,                    //  输入集群;
     42            GENERICAPP_MAX_CLUSTERS,          //  输出集群数;
     43            (cId_t *)GenericApp_ClusterList   // 输出集群;
     44          };
     45          
     46          // This is the Endpoint/Interface description.  It is defined here, but
     47          // filled-in in GenericApp_Init().  Another way to go would be to fill
     48          // in the structure here and make it a "const" (in code space).  The
     49          // way it's defined in this sample app it is define in RAM.
     50          

   \                                 In  segment XDATA_Z, align 1, keep-with-next
     51          endPointDesc_t GenericApp_epDesc;  // 端点描述符
   \                     GenericApp_epDesc:
   \   000000                DS 6
   \   000006                REQUIRE __INIT_XDATA_Z
     52          
     53          
     54          /*********************************************************************
     55           * LOCAL VARIABLES
     56           */
     57          
     58          // 任务ID

   \                                 In  segment XDATA_Z, align 1, keep-with-next
     59          byte GenericApp_TaskID;   // Task ID for internal task/event processing
   \                     GenericApp_TaskID:
   \   000000                DS 1
   \   000001                REQUIRE __INIT_XDATA_Z
     60                                    // This variable will be received when
     61                                    // GenericApp_Init() is called.
     62          // 网络状态

   \                                 In  segment XDATA_Z, align 1, keep-with-next
     63          devStates_t GenericApp_NwkState;
   \                     GenericApp_NwkState:
   \   000000                DS 1
   \   000001                REQUIRE __INIT_XDATA_Z
     64          
     65          // 消息ID

   \                                 In  segment XDATA_Z, align 1, keep-with-next
     66          byte GenericApp_TransID;  // This is the unique message ID (counter)
   \                     GenericApp_TransID:
   \   000000                DS 1
   \   000001                REQUIRE __INIT_XDATA_Z
     67          
     68          
     69          /*********************************************************************
     70           * LOCAL FUNCTIONS
     71           */
     72          
     73          static void GenericApp_MessageMSGCB( afIncomingMSGPacket_t *pckt );
     74          static void GenericApp_SendTheMessage( void );
     75          
     76          /*********************************************************************
     77           * @fn      GenericApp_Init
     78           *
     79           * @brief   Initialization function for the Generic App Task.
     80           *          This is called during initialization and should contain
     81           *          any application specific initialization (ie. hardware
     82           *          initialization/setup, table initialization, power up
     83           *          notificaiton ... ).
     84           *
     85           * @param   task_id - the ID assigned by OSAL.  This ID should be
     86           *                    used to send messages and set timers.
     87           *
     88           * @return  none
     89           */

   \                                 In  segment BANKED_CODE, align 1, keep-with-next
     90          void GenericApp_Init( uint8 task_id )
   \                     GenericApp_Init:
     91          {
   \   000000   74F7         MOV     A,#-0x9
   \   000002   12....       LCALL   ?BANKED_ENTER_XDATA
   \   000005                ; Saved register size: 9
   \   000005                ; Auto size: 0
   \   000005   E9           MOV     A,R1
     92            GenericApp_TaskID = task_id;     // 保存任务ID
   \   000006   90....       MOV     DPTR,#GenericApp_TaskID
   \   000009   F0           MOVX    @DPTR,A
     93            
     94            GenericApp_NwkState = DEV_INIT;   // 初始化网络状态
   \   00000A   90....       MOV     DPTR,#GenericApp_NwkState
   \   00000D   7401         MOV     A,#0x1
   \   00000F   F0           MOVX    @DPTR,A
     95            
     96            GenericApp_TransID = 0;
   \   000010   90....       MOV     DPTR,#GenericApp_TransID
   \   000013   E4           CLR     A
   \   000014   F0           MOVX    @DPTR,A
     97          
     98            
     99            // Fill out the endpoint description.  初始化端点描述符
    100            GenericApp_epDesc.endPoint = GENERICAPP_ENDPOINT;
   \   000015   90....       MOV     DPTR,#GenericApp_epDesc
   \   000018   740A         MOV     A,#0xa
   \   00001A   F0           MOVX    @DPTR,A
    101            GenericApp_epDesc.task_id = &GenericApp_TaskID;
   \   00001B   A3           INC     DPTR
   \   00001C   74..         MOV     A,#GenericApp_TaskID & 0xff
   \   00001E   F0           MOVX    @DPTR,A
   \   00001F   A3           INC     DPTR
   \   000020   74..         MOV     A,#(GenericApp_TaskID >> 8) & 0xff
   \   000022   F0           MOVX    @DPTR,A
    102            GenericApp_epDesc.simpleDesc
    103                      = (SimpleDescriptionFormat_t *)&GenericApp_SimpleDesc;
   \   000023   A3           INC     DPTR
   \   000024   74..         MOV     A,#GenericApp_SimpleDesc & 0xff
   \   000026   F0           MOVX    @DPTR,A
   \   000027   A3           INC     DPTR
   \   000028   74..         MOV     A,#(GenericApp_SimpleDesc >> 8) & 0xff
   \   00002A   F0           MOVX    @DPTR,A
    104            GenericApp_epDesc.latencyReq = noLatencyReqs;
   \   00002B   A3           INC     DPTR
   \   00002C   E4           CLR     A
   \   00002D   F0           MOVX    @DPTR,A
    105          
    106            // Register the endpoint description with the AF 注册端点
    107            afRegister( &GenericApp_epDesc );
   \   00002E                ; Setup parameters for call to function afRegister
   \   00002E   7A..         MOV     R2,#GenericApp_epDesc & 0xff
   \   000030   7B..         MOV     R3,#(GenericApp_epDesc >> 8) & 0xff
   \   000032   12....       LCALL   ??afRegister?relay
    108          }
   \   000035   7F01         MOV     R7,#0x1
   \   000037   02....       LJMP    ?BANKED_LEAVE_XDATA
    109          
    110          /*********************************************************************
    111           * @fn      GenericApp_ProcessEvent
    112           *
    113           * @brief   Generic Application Task event processor.  This function
    114           *          is called to process all events for the task.  Events
    115           *          include timers, messages and any other user defined events.
    116           *
    117           * @param   task_id  - The OSAL assigned task ID.
    118           * @param   events - events to process.  This is a bit map and can
    119           *                   contain more than one event.
    120           *
    121           * @return  none
    122           */

   \                                 In  segment BANKED_CODE, align 1, keep-with-next
    123          uint16 GenericApp_ProcessEvent( uint8 task_id, uint16 events )
   \                     GenericApp_ProcessEvent:
    124          {
   \   000000   74F4         MOV     A,#-0xc
   \   000002   12....       LCALL   ?BANKED_ENTER_XDATA
   \   000005                ; Saved register size: 12
   \   000005                ; Auto size: 15
   \   000005   74F1         MOV     A,#-0xf
   \   000007   12....       LCALL   ?ALLOC_XSTACK8
   \   00000A   8A..         MOV     ?V0 + 0,R2
   \   00000C   8B..         MOV     ?V0 + 1,R3
    125            afIncomingMSGPacket_t *MSGpkt;
    126            
    127            if ( events & SYS_EVENT_MSG )
   \   00000E   EB           MOV     A,R3
   \   00000F   5480         ANL     A,#0x80
   \   000011   7003         JNZ     $+5
   \   000013   02....       LJMP    ??GenericApp_ProcessEvent_0 & 0xFFFF
    128            {
    129              MSGpkt = (afIncomingMSGPacket_t *)osal_msg_receive( GenericApp_TaskID );
   \   000016                ; Setup parameters for call to function osal_msg_receive
   \   000016   800E         SJMP    ??GenericApp_ProcessEvent_1
   \                     ??GenericApp_ProcessEvent_2:
   \   000018                ; Setup parameters for call to function HalLedSet
    130              while ( MSGpkt )
    131              {
    132                switch ( MSGpkt->hdr.event )
    133                {
    134                  case ZDO_STATE_CHANGE:
    135                    GenericApp_NwkState = (devStates_t)(MSGpkt->hdr.status);
    136                    if ((GenericApp_NwkState == DEV_ROUTER)
    137                        || (GenericApp_NwkState == DEV_END_DEVICE) )   
    138                    {
    139                      // Start sending "the" message in a regular interval. 加入网络成功
    140                      // 发送数据
    141                      GenericApp_SendTheMessage();
   \   000018   7A01         MOV     R2,#0x1
   \   00001A   7902         MOV     R1,#0x2
   \   00001C   12....       LCALL   ??HalLedSet?relay
    142                    }
    143                    break;
    144                   
    145          
    146                  default:
    147                    break;
    148                }
    149          
    150                // Release the memory
    151                osal_msg_deallocate( (uint8 *)MSGpkt );
   \                     ??GenericApp_ProcessEvent_3:
   \   00001F                ; Setup parameters for call to function osal_msg_deallocate
   \   00001F   EE           MOV     A,R6
   \   000020   FA           MOV     R2,A
   \   000021   EF           MOV     A,R7
   \   000022   FB           MOV     R3,A
   \   000023   12....       LCALL   ??osal_msg_deallocate?relay
    152          
    153                // Next
    154                MSGpkt = (afIncomingMSGPacket_t *)osal_msg_receive( GenericApp_TaskID );
   \   000026                ; Setup parameters for call to function osal_msg_receive
   \                     ??GenericApp_ProcessEvent_1:
   \   000026   90....       MOV     DPTR,#GenericApp_TaskID
   \   000029   E0           MOVX    A,@DPTR
   \   00002A   F9           MOV     R1,A
   \   00002B   12....       LCALL   ??osal_msg_receive?relay
   \   00002E   8A..         MOV     ?V0 + 2,R2
   \   000030   8B..         MOV     ?V0 + 3,R3
   \   000032   AE..         MOV     R6,?V0 + 2
   \   000034   AF..         MOV     R7,?V0 + 3
   \   000036   EE           MOV     A,R6
   \   000037   4F           ORL     A,R7
   \   000038   7003         JNZ     $+5
   \   00003A   02....       LJMP    ??GenericApp_ProcessEvent_4 & 0xFFFF
   \   00003D   8E82         MOV     DPL,R6
   \   00003F   8F83         MOV     DPH,R7
   \   000041   E0           MOVX    A,@DPTR
   \   000042   64D1         XRL     A,#0xd1
   \   000044   70D9         JNZ     ??GenericApp_ProcessEvent_3
   \   000046   A3           INC     DPTR
   \   000047   E0           MOVX    A,@DPTR
   \   000048   90....       MOV     DPTR,#GenericApp_NwkState
   \   00004B   F0           MOVX    @DPTR,A
   \   00004C   6407         XRL     A,#0x7
   \   00004E   6005         JZ      ??GenericApp_ProcessEvent_5
   \   000050   E0           MOVX    A,@DPTR
   \   000051   6406         XRL     A,#0x6
   \   000053   70CA         JNZ     ??GenericApp_ProcessEvent_3
   \                     ??GenericApp_ProcessEvent_5:
   \   000055   85..82       MOV     DPL,?XSP + 0
   \   000058   85..83       MOV     DPH,?XSP + 1
   \   00005B   AC82         MOV     R4,DPL
   \   00005D   AD83         MOV     R5,DPH
   \   00005F   7583..       MOV     DPH,#(`?<Constant "D1">` >> 8) & 0xff
   \   000062   7582..       MOV     DPL,#`?<Constant "D1">` & 0xff
   \   000065   7403         MOV     A,#0x3
   \   000067   12....       LCALL   ?MOVE_LONG8_XDATA_XDATA
   \   00006A   7403         MOV     A,#0x3
   \   00006C   12....       LCALL   ?XSTACK_DISP0_8
   \   00006F   E4           CLR     A
   \   000070   F0           MOVX    @DPTR,A
   \   000071   A3           INC     DPTR
   \   000072   F0           MOVX    @DPTR,A
   \   000073   740B         MOV     A,#0xb
   \   000075   12....       LCALL   ?XSTACK_DISP0_8
   \   000078   7402         MOV     A,#0x2
   \   00007A   F0           MOVX    @DPTR,A
   \   00007B   740C         MOV     A,#0xc
   \   00007D   12....       LCALL   ?XSTACK_DISP0_8
   \   000080   740A         MOV     A,#0xa
   \   000082   F0           MOVX    @DPTR,A
   \   000083                ; Setup parameters for call to function AF_DataRequest
   \   000083   75..1E       MOV     ?V0 + 2,#0x1e
   \   000086   78..         MOV     R0,#?V0 + 2
   \   000088   12....       LCALL   ?PUSH_XSTACK_I_ONE
   \   00008B   75....       MOV     ?V0 + 2,#GenericApp_TransID & 0xff
   \   00008E   75....       MOV     ?V0 + 3,#(GenericApp_TransID >> 8) & 0xff
   \   000091   78..         MOV     R0,#?V0 + 2
   \   000093   12....       LCALL   ?PUSH_XSTACK_I_TWO
   \   000096   7403         MOV     A,#0x3
   \   000098   12....       LCALL   ?XSTACK_DISP0_8
   \   00009B   8582..       MOV     ?V0 + 2,DPL
   \   00009E   8583..       MOV     ?V0 + 3,DPH
   \   0000A1   78..         MOV     R0,#?V0 + 2
   \   0000A3   12....       LCALL   ?PUSH_XSTACK_I_TWO
   \   0000A6                ; Setup parameters for call to function osal_strlen
   \   0000A6   7405         MOV     A,#0x5
   \   0000A8   12....       LCALL   ?XSTACK_DISP0_8
   \   0000AB   AA82         MOV     R2,DPL
   \   0000AD   AB83         MOV     R3,DPH
   \   0000AF   12....       LCALL   ??osal_strlen?relay
   \   0000B2   EA           MOV     A,R2
   \   0000B3   2401         ADD     A,#0x1
   \   0000B5   F5..         MOV     ?V0 + 2,A
   \   0000B7   E4           CLR     A
   \   0000B8   3400         ADDC    A,#0x0
   \   0000BA   F5..         MOV     ?V0 + 3,A
   \   0000BC   78..         MOV     R0,#?V0 + 2
   \   0000BE   12....       LCALL   ?PUSH_XSTACK_I_TWO
   \   0000C1   75..01       MOV     ?V0 + 2,#0x1
   \   0000C4   75..00       MOV     ?V0 + 3,#0x0
   \   0000C7   78..         MOV     R0,#?V0 + 2
   \   0000C9   12....       LCALL   ?PUSH_XSTACK_I_TWO
   \   0000CC   7920         MOV     R1,#0x20
   \   0000CE   7C..         MOV     R4,#GenericApp_epDesc & 0xff
   \   0000D0   7D..         MOV     R5,#(GenericApp_epDesc >> 8) & 0xff
   \   0000D2   740C         MOV     A,#0xc
   \   0000D4   12....       LCALL   ?XSTACK_DISP0_8
   \   0000D7   AA82         MOV     R2,DPL
   \   0000D9   AB83         MOV     R3,DPH
   \   0000DB   12....       LCALL   ??AF_DataRequest?relay
   \   0000DE   7409         MOV     A,#0x9
   \   0000E0   12....       LCALL   ?DEALLOC_XSTACK8
   \   0000E3   E9           MOV     A,R1
   \   0000E4   6003         JZ      $+5
   \   0000E6   02....       LJMP    ??GenericApp_ProcessEvent_2 & 0xFFFF
   \   0000E9                ; Setup parameters for call to function HalLedBlink
   \   0000E9   7CE8         MOV     R4,#-0x18
   \   0000EB   7D03         MOV     R5,#0x3
   \   0000ED   7B32         MOV     R3,#0x32
   \   0000EF   7A00         MOV     R2,#0x0
   \   0000F1   7902         MOV     R1,#0x2
   \   0000F3   12....       LCALL   ??HalLedBlink?relay
   \   0000F6   02....       LJMP    ??GenericApp_ProcessEvent_3 & 0xFFFF
    155              }
    156          
    157              // return unprocessed events
    158              return (events ^ SYS_EVENT_MSG);
   \                     ??GenericApp_ProcessEvent_4:
   \   0000F9   AA..         MOV     R2,?V0 + 0
   \   0000FB   E5..         MOV     A,?V0 + 1
   \   0000FD   6480         XRL     A,#0x80
   \   0000FF   FB           MOV     R3,A
   \   000100   8004         SJMP    ??GenericApp_ProcessEvent_6
    159            }
    160          
    161            // Discard unknown events
    162            return 0;
   \                     ??GenericApp_ProcessEvent_0:
   \   000102   7A00         MOV     R2,#0x0
   \   000104   7B00         MOV     R3,#0x0
   \                     ??GenericApp_ProcessEvent_6:
   \   000106   740F         MOV     A,#0xf
   \   000108   12....       LCALL   ?DEALLOC_XSTACK8
   \   00010B   7F04         MOV     R7,#0x4
   \   00010D   02....       LJMP    ?BANKED_LEAVE_XDATA
    163          }

   \                                 In  segment BANK_RELAYS, align 1
   \                     ??GenericApp_Init?relay:
   \   000000   12....       LCALL   ?BDISPATCH
   \   000003   ......       DC24    GenericApp_Init

   \                                 In  segment BANK_RELAYS, align 1
   \                     ??GenericApp_ProcessEvent?relay:
   \   000000   12....       LCALL   ?BDISPATCH
   \   000003   ......       DC24    GenericApp_ProcessEvent

   \                                 In  segment XDATA_ROM_C, align 1
   \                     `?<Constant "D1">`:
   \   000000   443100       DB "D1"
    164          
    165          
    166          /*********************************************************************
    167           * @fn      GenericApp_SendTheMessage
    168           *
    169           * @brief   Send "the" message.
    170           *
    171           * @param   none
    172           *
    173           * @return  none
    174           */
    175          static void GenericApp_SendTheMessage( void )
    176          {
    177            char theMessageData[] = "D1";
    178            
    179            // 地址信息
    180            afAddrType_t GenericApp_DstAddr;
    181            GenericApp_DstAddr.addr.shortAddr = 0x0000;   // 协调器的地址
    182            GenericApp_DstAddr.addrMode = Addr16Bit;
                                               ^
Warning[Pe188]: enumerated type mixed with another type

  static void GenericApp_MessageMSGCB( afIncomingMSGPacket_t *pckt );
              ^
"D:\Texas Instruments\ZStack-CC2530-2.5.1a\Projects\zstack\Samples\GenericAppUnicast\CC2530DB\Endpointer.c",73  Warning[Pe177]: 
          function "GenericApp_MessageMSGCB" was declared but never referenced
    183            GenericApp_DstAddr.endPoint = GENERICAPP_ENDPOINT;
    184            
    185            if ( AF_DataRequest( &GenericApp_DstAddr, &GenericApp_epDesc,
    186                                 GENERICAPP_CLUSTERID,
    187                                 (byte)osal_strlen( theMessageData ) + 1,
    188                                 (byte *)&theMessageData,
    189                                 &GenericApp_TransID,
    190                                 AF_DISCV_ROUTE, AF_DEFAULT_RADIUS ) == afStatus_SUCCESS )
    191            {
    192              HalLedBlink(HAL_LED_2, 0, 50, 1000);
    193            }
    194            else
    195            {
    196              HalLedSet(HAL_LED_2, HAL_LED_MODE_ON);
    197            }
    198          }
    199          

   Maximum stack usage in bytes:

     Function                 ISTACK PSTACK XSTACK
     --------                 ------ ------ ------
     GenericApp_Init              0      0      9
       -> afRegister              0      0     18
     GenericApp_ProcessEvent      2      0     36
       -> osal_msg_receive        0      0     54
       -> HalLedSet               0      0     54
       -> osal_msg_deallocate     0      0     54
       -> osal_msg_receive        0      0     54
       -> osal_strlen             0      0     64
       -> AF_DataRequest          0      0     72
       -> HalLedBlink             0      0     54


   Segment part sizes:

     Function/Label                  Bytes
     --------------                  -----
     GenericApp_ClusterList             2
     GenericApp_SimpleDesc             12
     GenericApp_epDesc                  6
     GenericApp_TaskID                  1
     GenericApp_NwkState                1
     GenericApp_TransID                 1
     GenericApp_Init                   58
     GenericApp_ProcessEvent          272
     ??GenericApp_Init?relay            6
     ??GenericApp_ProcessEvent?relay    6
     ?<Constant "D1">                   3

 
 330 bytes in segment BANKED_CODE
  12 bytes in segment BANK_RELAYS
  17 bytes in segment XDATA_ROM_C
   9 bytes in segment XDATA_Z
 
 342 bytes of CODE  memory
  17 bytes of CONST memory
   9 bytes of XDATA memory

Errors: none
Warnings: 2
