###############################################################################
#                                                                             #
# IAR C/C++ Compiler V8.10.3.10338/W32 for 8051         27/Mar/2017  17:09:58 #
# Copyright 2004-2011 IAR Systems AB.                                         #
#                                                                             #
#    Core               =  plain                                              #
#    Code model         =  banked                                             #
#    Data model         =  large                                              #
#    Calling convention =  xdata reentrant                                    #
#    Constant location  =  data_rom                                           #
#    Dptr setup         =  1,16                                               #
#    Source file        =  D:\IAR\ZStack-CC2530-2.5.1a\Projects\zstack\Sample #
#                          s\GenericApp-Sensor\Source\GenericApp.c            #
#    Command line       =  -f D:\IAR\ZStack-CC2530-2.5.1a\Projects\zstack\Sam #
#                          ples\GenericApp-Sensor\CC2530DB\..\..\..\Tools\CC2 #
#                          530DB\f8wCoord.cfg (-DCPU32MHZ -DROOT=__near_func  #
#                          -DMAC_CFG_APP_PENDING_QUEUE=TRUE                   #
#                          -DMAC_CFG_TX_DATA_MAX=5 -DMAC_CFG_TX_MAX=8         #
#                          -DMAC_CFG_RX_MAX=5 -DZDO_COORDINATOR -DRTR_NWK)    #
#                          -f D:\IAR\ZStack-CC2530-2.5.1a\Projects\zstack\Sam #
#                          ples\GenericApp-Sensor\CC2530DB\..\..\..\Tools\CC2 #
#                          530DB\f8wConfig.cfg (-DZIGBEEPRO -DSECURE=0        #
#                          -DZG_SECURE_DYNAMIC=0 -DREFLECTOR                  #
#                          -DDEFAULT_CHANLIST=0x00000800                      #
#                          -DZDAPP_CONFIG_PAN_ID=0xFF4E                       #
#                          -DNWK_START_DELAY=100 -DEXTENDED_JOINING_RANDOM_MA #
#                          SK=0x007F -DBEACON_REQUEST_DELAY=100               #
#                          -DBEACON_REQ_DELAY_MASK=0x00FF                     #
#                          -DLINK_STATUS_JITTER_MASK=0x007F                   #
#                          -DROUTE_EXPIRY_TIME=30 -DAPSC_ACK_WAIT_DURATION_PO #
#                          LLED=3000 -DNWK_INDIRECT_MSG_TIMEOUT=7             #
#                          -DMAX_RREQ_ENTRIES=8 -DAPSC_MAX_FRAME_RETRIES=3    #
#                          -DNWK_MAX_DATA_RETRIES=2                           #
#                          -DMAX_POLL_FAILURE_RETRIES=2 -DMAX_BCAST=9         #
#                          -DAPS_MAX_GROUPS=16 -DMAX_RTG_ENTRIES=40           #
#                          -DNWK_MAX_BINDING_ENTRIES=4                        #
#                          -DMAX_BINDING_CLUSTER_IDS=4 "-DDEFAULT_KEY={0x01,  #
#                          0x03, 0x05, 0x07, 0x09, 0x0B, 0x0D, 0x0F, 0x00,    #
#                          0x02, 0x04, 0x06, 0x08, 0x0A, 0x0C, 0x0D}"         #
#                          -DMAC_MAX_FRAME_SIZE=116                           #
#                          -DZDNWKMGR_MIN_TRANSMISSIONS=20 "-DCONST=const     #
#                          __code" -DGENERIC=__generic                        #
#                          -DRFD_RCVC_ALWAYS_ON=FALSE -DPOLL_RATE=1000        #
#                          -DQUEUED_POLL_RATE=100 -DRESPONSE_POLL_RATE=100)   #
#                          -DREJOIN_POLL_RATE=440 D:\IAR\ZStack-CC2530-2.5.1a #
#                          \Projects\zstack\Samples\GenericApp-Sensor\Source\ #
#                          GenericApp.c -D ZTOOL_P1 -D MT_TASK -D             #
#                          MT_SYS_FUNC -D MT_ZDO_FUNC -D LCD_SUPPORTED=DEBUG  #
#                          -lC D:\IAR\ZStack-CC2530-2.5.1a\Projects\zstack\Sa #
#                          mples\GenericApp-Sensor\CC2530DB\CoordinatorEB\Lis #
#                          t\ -lA D:\IAR\ZStack-CC2530-2.5.1a\Projects\zstack #
#                          \Samples\GenericApp-Sensor\CC2530DB\CoordinatorEB\ #
#                          List\ --diag_suppress Pe001,Pa010 -o               #
#                          D:\IAR\ZStack-CC2530-2.5.1a\Projects\zstack\Sample #
#                          s\GenericApp-Sensor\CC2530DB\CoordinatorEB\Obj\    #
#                          -e --no_code_motion --debug --core=plain           #
#                          --dptr=16,1 --data_model=large                     #
#                          --code_model=banked --calling_convention=xdata_ree #
#                          ntrant --place_constants=data_rom                  #
#                          --nr_virtual_regs 16 -I D:\IAR\ZStack-CC2530-2.5.1 #
#                          a\Projects\zstack\Samples\GenericApp-Sensor\CC2530 #
#                          DB\ -I D:\IAR\ZStack-CC2530-2.5.1a\Projects\zstack #
#                          \Samples\GenericApp-Sensor\CC2530DB\..\Source\ -I  #
#                          D:\IAR\ZStack-CC2530-2.5.1a\Projects\zstack\Sample #
#                          s\GenericApp-Sensor\CC2530DB\..\..\..\ZMain\TI2530 #
#                          DB\ -I D:\IAR\ZStack-CC2530-2.5.1a\Projects\zstack #
#                          \Samples\GenericApp-Sensor\CC2530DB\..\..\..\..\.. #
#                          \Components\hal\include\ -I                        #
#                          D:\IAR\ZStack-CC2530-2.5.1a\Projects\zstack\Sample #
#                          s\GenericApp-Sensor\CC2530DB\..\..\..\..\..\Compon #
#                          ents\hal\target\CC2530EB\ -I                       #
#                          D:\IAR\ZStack-CC2530-2.5.1a\Projects\zstack\Sample #
#                          s\GenericApp-Sensor\CC2530DB\..\..\..\..\..\Compon #
#                          ents\mac\include\ -I D:\IAR\ZStack-CC2530-2.5.1a\P #
#                          rojects\zstack\Samples\GenericApp-Sensor\CC2530DB\ #
#                          ..\..\..\..\..\Components\mac\high_level\ -I       #
#                          D:\IAR\ZStack-CC2530-2.5.1a\Projects\zstack\Sample #
#                          s\GenericApp-Sensor\CC2530DB\..\..\..\..\..\Compon #
#                          ents\mac\low_level\srf04\ -I                       #
#                          D:\IAR\ZStack-CC2530-2.5.1a\Projects\zstack\Sample #
#                          s\GenericApp-Sensor\CC2530DB\..\..\..\..\..\Compon #
#                          ents\mac\low_level\srf04\single_chip\ -I           #
#                          D:\IAR\ZStack-CC2530-2.5.1a\Projects\zstack\Sample #
#                          s\GenericApp-Sensor\CC2530DB\..\..\..\..\..\Compon #
#                          ents\mt\ -I D:\IAR\ZStack-CC2530-2.5.1a\Projects\z #
#                          stack\Samples\GenericApp-Sensor\CC2530DB\..\..\..\ #
#                          ..\..\Components\osal\include\ -I                  #
#                          D:\IAR\ZStack-CC2530-2.5.1a\Projects\zstack\Sample #
#                          s\GenericApp-Sensor\CC2530DB\..\..\..\..\..\Compon #
#                          ents\services\saddr\ -I D:\IAR\ZStack-CC2530-2.5.1 #
#                          a\Projects\zstack\Samples\GenericApp-Sensor\CC2530 #
#                          DB\..\..\..\..\..\Components\services\sdata\ -I    #
#                          D:\IAR\ZStack-CC2530-2.5.1a\Projects\zstack\Sample #
#                          s\GenericApp-Sensor\CC2530DB\..\..\..\..\..\Compon #
#                          ents\stack\af\ -I D:\IAR\ZStack-CC2530-2.5.1a\Proj #
#                          ects\zstack\Samples\GenericApp-Sensor\CC2530DB\..\ #
#                          ..\..\..\..\Components\stack\nwk\ -I               #
#                          D:\IAR\ZStack-CC2530-2.5.1a\Projects\zstack\Sample #
#                          s\GenericApp-Sensor\CC2530DB\..\..\..\..\..\Compon #
#                          ents\stack\sapi\ -I D:\IAR\ZStack-CC2530-2.5.1a\Pr #
#                          ojects\zstack\Samples\GenericApp-Sensor\CC2530DB\. #
#                          .\..\..\..\..\Components\stack\sec\ -I             #
#                          D:\IAR\ZStack-CC2530-2.5.1a\Projects\zstack\Sample #
#                          s\GenericApp-Sensor\CC2530DB\..\..\..\..\..\Compon #
#                          ents\stack\sys\ -I D:\IAR\ZStack-CC2530-2.5.1a\Pro #
#                          jects\zstack\Samples\GenericApp-Sensor\CC2530DB\.. #
#                          \..\..\..\..\Components\stack\zdo\ -I              #
#                          D:\IAR\ZStack-CC2530-2.5.1a\Projects\zstack\Sample #
#                          s\GenericApp-Sensor\CC2530DB\..\..\..\..\..\Compon #
#                          ents\zmac\ -I D:\IAR\ZStack-CC2530-2.5.1a\Projects #
#                          \zstack\Samples\GenericApp-Sensor\CC2530DB\..\..\. #
#                          .\..\..\Components\zmac\f8w\ -Ohz                  #
#                          --require_prototypes                               #
#    List file          =  D:\IAR\ZStack-CC2530-2.5.1a\Projects\zstack\Sample #
#                          s\GenericApp-Sensor\CC2530DB\CoordinatorEB\List\Ge #
#                          nericApp.lst                                       #
#    Object file        =  D:\IAR\ZStack-CC2530-2.5.1a\Projects\zstack\Sample #
#                          s\GenericApp-Sensor\CC2530DB\CoordinatorEB\Obj\Gen #
#                          ericApp.r51                                        #
#                                                                             #
#                                                                             #
###############################################################################

D:\IAR\ZStack-CC2530-2.5.1a\Projects\zstack\Samples\GenericApp-Sensor\Source\GenericApp.c
      1          
      2          /*********************************************************************
      3           * INCLUDES
      4           */
      5          #include "OSAL.h"
      6          #include "AF.h"
      7          #include "ZDApp.h"
      8          #include "ZDObject.h"
      9          #include "ZDProfile.h"
     10          
     11          #include "GenericApp.h"
     12          #include "DebugTrace.h"
     13          
     14          #if !defined( WIN32 )
     15            #include "OnBoard.h"
     16          #endif
     17          
     18          /* HAL */
     19          #include "hal_lcd.h"
     20          #include "hal_led.h"
     21          #include "hal_key.h"
     22          #include "hal_uart.h"
     23          
     24          
     25          
     26          /*********************************************************************
     27           * GLOBAL VARIABLES
     28           */
     29          // This list should be filled with Application specific Cluster IDs.

   \                                 In  segment XDATA_ROM_C, align 1
     30          const cId_t GenericApp_ClusterList[GENERICAPP_MAX_CLUSTERS] =
   \                     GenericApp_ClusterList:
   \   000000   0100         DW 1
     31          {
     32            GENERICAPP_CLUSTERID
     33          };
     34          

   \                                 In  segment XDATA_ROM_C, align 1
     35          const SimpleDescriptionFormat_t GenericApp_SimpleDesc =
   \                     GenericApp_SimpleDesc:
   \   000000   0A           DB 10
   \   000001   040F         DW 3844
   \   000003   0100         DW 1
   \   000005   00           DB 0
   \   000006   01           DB 1
   \   000007   ....         DW GenericApp_ClusterList
   \   000009   00           DB 0
   \   00000A   0000         DW 0H
     36          {
     37            GENERICAPP_ENDPOINT,              //  int Endpoint;
     38            GENERICAPP_PROFID,                //  uint16 AppProfId[2];
     39            GENERICAPP_DEVICEID,              //  uint16 AppDeviceId[2];
     40            GENERICAPP_DEVICE_VERSION,        //  int   AppDevVer:4;
     41            GENERICAPP_FLAGS,                 //  int   AppFlags:4;
     42            GENERICAPP_MAX_CLUSTERS,          //  byte  AppNumInClusters;
     43            (cId_t *)GenericApp_ClusterList,  //  byte *pAppInClusterList;
     44            0,          //  byte  AppNumInClusters;
     45            (cId_t *)NULL   //  byte *pAppInClusterList;
     46          };
     47          
     48          

   \                                 In  segment XDATA_Z, align 1, keep-with-next
     49          endPointDesc_t GenericApp_epDesc;
   \                     GenericApp_epDesc:
   \   000000                DS 6
   \   000006                REQUIRE __INIT_XDATA_Z
     50          
     51          /*********************************************************************
     52           * LOCAL VARIABLES
     53           */

   \                                 In  segment XDATA_Z, align 1, keep-with-next
     54          byte GenericApp_TaskID;   // Task ID for internal task/event processing
   \                     GenericApp_TaskID:
   \   000000                DS 1
   \   000001                REQUIRE __INIT_XDATA_Z
     55                                    // This variable will be received when
     56          

   \                                 In  segment XDATA_Z, align 1, keep-with-next
     57          byte GenericApp_TransID;  // This is the unique message ID (counter)
   \                     GenericApp_TransID:
   \   000000                DS 1
   \   000001                REQUIRE __INIT_XDATA_Z
     58          
     59          
     60          
     61          typedef union h
     62          {
     63            uint8 temp[4];
     64            struct RFRXBUF
     65            {
     66              unsigned char Head;       // ÃüÁîÍ·
     67              unsigned char values[2];  // ÎÂ¶ÈÊý¾Ý
     68              unsigned char Tail;       // ÃüÁîÎ²
     69            }Buf;
     70          }Temperature_u;
     71          
     72          /*********************************************************************
     73           * LOCAL FUNCTIONS
     74           */
     75          
     76          static void GenericApp_MessageMSGCB( afIncomingMSGPacket_t *pckt );
     77          
     78          
     79          /*********************************************************************
     80           * @fn      GenericApp_Init
     81           *
     82           * @brief   Initialization function for the Generic App Task.
     83           *          This is called during initialization and should contain
     84           *          any application specific initialization (ie. hardware
     85           *          initialization/setup, table initialization, power up
     86           *          notificaiton ... ).
     87           *
     88           * @param   task_id - the ID assigned by OSAL.  This ID should be
     89           *                    used to send messages and set timers.
     90           *
     91           * @return  none
     92           */

   \                                 In  segment BANKED_CODE, align 1, keep-with-next
     93          void GenericApp_Init( uint8 task_id )
   \                     GenericApp_Init:
     94          {
   \   000000   74F7         MOV     A,#-0x9
   \   000002   12....       LCALL   ?BANKED_ENTER_XDATA
   \   000005                ; Saved register size: 9
   \   000005                ; Auto size: 29
   \   000005   74E3         MOV     A,#-0x1d
   \   000007   12....       LCALL   ?ALLOC_XSTACK8
   \   00000A   E9           MOV     A,R1
     95            halUARTCfg_t uartConfig;
     96            
     97            GenericApp_TaskID = task_id;
   \   00000B   90....       MOV     DPTR,#GenericApp_TaskID
   \   00000E   F0           MOVX    @DPTR,A
     98            GenericApp_TransID = 0;
   \   00000F   90....       MOV     DPTR,#GenericApp_TransID
   \   000012   E4           CLR     A
   \   000013   F0           MOVX    @DPTR,A
     99          
    100          
    101            // Fill out the endpoint description.
    102            GenericApp_epDesc.endPoint = GENERICAPP_ENDPOINT;
   \   000014   90....       MOV     DPTR,#GenericApp_epDesc
   \   000017   740A         MOV     A,#0xa
   \   000019   F0           MOVX    @DPTR,A
    103            GenericApp_epDesc.task_id = &GenericApp_TaskID;
   \   00001A   A3           INC     DPTR
   \   00001B   74..         MOV     A,#GenericApp_TaskID & 0xff
   \   00001D   F0           MOVX    @DPTR,A
   \   00001E   A3           INC     DPTR
   \   00001F   74..         MOV     A,#(GenericApp_TaskID >> 8) & 0xff
   \   000021   F0           MOVX    @DPTR,A
    104            GenericApp_epDesc.simpleDesc
    105                      = (SimpleDescriptionFormat_t *)&GenericApp_SimpleDesc;
   \   000022   A3           INC     DPTR
   \   000023   74..         MOV     A,#GenericApp_SimpleDesc & 0xff
   \   000025   F0           MOVX    @DPTR,A
   \   000026   A3           INC     DPTR
   \   000027   74..         MOV     A,#(GenericApp_SimpleDesc >> 8) & 0xff
   \   000029   F0           MOVX    @DPTR,A
    106            GenericApp_epDesc.latencyReq = noLatencyReqs;
   \   00002A   A3           INC     DPTR
   \   00002B   E4           CLR     A
   \   00002C   F0           MOVX    @DPTR,A
    107          
    108            // Register the endpoint description with the AF
    109            afRegister( &GenericApp_epDesc );
   \   00002D                ; Setup parameters for call to function afRegister
   \   00002D   7A..         MOV     R2,#GenericApp_epDesc & 0xff
   \   00002F   7B..         MOV     R3,#(GenericApp_epDesc >> 8) & 0xff
   \   000031   12....       LCALL   ??afRegister?relay
    110            
    111            // ´®¿ÚÅäÖÃ
    112            uartConfig.configured = TRUE;
   \   000034   85..82       MOV     DPL,?XSP + 0
   \   000037   85..83       MOV     DPH,?XSP + 1
   \   00003A   7401         MOV     A,#0x1
   \   00003C   F0           MOVX    @DPTR,A
    113            uartConfig.baudRate = HAL_UART_BR_115200;
   \   00003D   12....       LCALL   ?XSTACK_DISP0_8
   \   000040   7404         MOV     A,#0x4
   \   000042   F0           MOVX    @DPTR,A
    114            uartConfig.flowControl = FALSE;
   \   000043   7402         MOV     A,#0x2
   \   000045   12....       LCALL   ?XSTACK_DISP0_8
   \   000048   E4           CLR     A
   \   000049   F0           MOVX    @DPTR,A
    115            uartConfig.callBackFunc = NULL;
   \   00004A   741B         MOV     A,#0x1b
   \   00004C   12....       LCALL   ?XSTACK_DISP0_8
   \   00004F   E4           CLR     A
   \   000050   F0           MOVX    @DPTR,A
   \   000051   A3           INC     DPTR
   \   000052   F0           MOVX    @DPTR,A
    116            HalUARTOpen(0, &uartConfig);
   \   000053                ; Setup parameters for call to function HalUARTOpen
   \   000053   85..82       MOV     DPL,?XSP + 0
   \   000056   85..83       MOV     DPH,?XSP + 1
   \   000059   AA82         MOV     R2,DPL
   \   00005B   AB83         MOV     R3,DPH
   \   00005D   F9           MOV     R1,A
   \   00005E   12....       LCALL   ??HalUARTOpen?relay
    117          }
   \   000061   741D         MOV     A,#0x1d
   \   000063   12....       LCALL   ?DEALLOC_XSTACK8
   \   000066   7F01         MOV     R7,#0x1
   \   000068   02....       LJMP    ?BANKED_LEAVE_XDATA
    118          
    119          /*********************************************************************
    120           * @fn      GenericApp_ProcessEvent
    121           *
    122           * @brief   Generic Application Task event processor.  This function
    123           *          is called to process all events for the task.  Events
    124           *          include timers, messages and any other user defined events.
    125           *
    126           * @param   task_id  - The OSAL assigned task ID.
    127           * @param   events - events to process.  This is a bit map and can
    128           *                   contain more than one event.
    129           *
    130           * @return  none
    131           */

   \                                 In  segment BANKED_CODE, align 1, keep-with-next
    132          uint16 GenericApp_ProcessEvent( uint8 task_id, uint16 events )
   \                     GenericApp_ProcessEvent:
    133          {
   \   000000   74F1         MOV     A,#-0xf
   \   000002   12....       LCALL   ?BANKED_ENTER_XDATA
   \   000005                ; Saved register size: 15
   \   000005                ; Auto size: 6
   \   000005   74FA         MOV     A,#-0x6
   \   000007   12....       LCALL   ?ALLOC_XSTACK8
   \   00000A   8A..         MOV     ?V0 + 0,R2
   \   00000C   8B..         MOV     ?V0 + 1,R3
    134            afIncomingMSGPacket_t *MSGpkt;
    135           
    136            if ( events & SYS_EVENT_MSG )
   \   00000E   EB           MOV     A,R3
   \   00000F   5480         ANL     A,#0x80
   \   000011   7003         JNZ     $+5
   \   000013   02....       LJMP    ??GenericApp_ProcessEvent_0 & 0xFFFF
    137            {
    138              MSGpkt = (afIncomingMSGPacket_t *)osal_msg_receive( GenericApp_TaskID );
   \   000016                ; Setup parameters for call to function osal_msg_receive
   \   000016   02....       LJMP    ??GenericApp_ProcessEvent_1 & 0xFFFF
    139              while ( MSGpkt )
    140              {
    141                switch ( MSGpkt->hdr.event )
   \                     ??GenericApp_ProcessEvent_2:
   \   000019   8E82         MOV     DPL,R6
   \   00001B   8F83         MOV     DPH,R7
   \   00001D   E0           MOVX    A,@DPTR
   \   00001E   641A         XRL     A,#0x1a
   \   000020   7079         JNZ     ??GenericApp_ProcessEvent_3
    142                {
    143                  case AF_INCOMING_MSG_CMD:
    144                    GenericApp_MessageMSGCB( MSGpkt );
   \   000022   85..82       MOV     DPL,?XSP + 0
   \   000025   85..83       MOV     DPH,?XSP + 1
   \   000028   AC82         MOV     R4,DPL
   \   00002A   AD83         MOV     R5,DPH
   \   00002C   7583..       MOV     DPH,#(`?<Constant {10, 13}>` >> 8) & 0xff
   \   00002F   7582..       MOV     DPL,#`?<Constant {10, 13}>` & 0xff
   \   000032   7402         MOV     A,#0x2
   \   000034   12....       LCALL   ?MOVE_LONG8_XDATA_XDATA
   \   000037   8E82         MOV     DPL,R6
   \   000039   8F83         MOV     DPH,R7
   \   00003B   A3           INC     DPTR
   \   00003C   A3           INC     DPTR
   \   00003D   A3           INC     DPTR
   \   00003E   A3           INC     DPTR
   \   00003F   E0           MOVX    A,@DPTR
   \   000040   6401         XRL     A,#0x1
   \   000042   7002         JNZ     ??GenericApp_ProcessEvent_4
   \   000044   A3           INC     DPTR
   \   000045   E0           MOVX    A,@DPTR
   \                     ??GenericApp_ProcessEvent_4:
   \   000046   7053         JNZ     ??GenericApp_ProcessEvent_3
   \   000048                ; Setup parameters for call to function osal_memcpy
   \   000048   EE           MOV     A,R6
   \   000049   2422         ADD     A,#0x22
   \   00004B   F582         MOV     DPL,A
   \   00004D   EF           MOV     A,R7
   \   00004E   3400         ADDC    A,#0x0
   \   000050   F583         MOV     DPH,A
   \   000052   E0           MOVX    A,@DPTR
   \   000053   F5..         MOV     ?V0 + 4,A
   \   000055   A3           INC     DPTR
   \   000056   E0           MOVX    A,@DPTR
   \   000057   F5..         MOV     ?V0 + 5,A
   \   000059   75..00       MOV     ?V0 + 6,#0x0
   \   00005C   78..         MOV     R0,#?V0 + 4
   \   00005E   12....       LCALL   ?PUSH_XSTACK_I_THREE
   \   000061   7C04         MOV     R4,#0x4
   \   000063   7D00         MOV     R5,#0x0
   \   000065   7405         MOV     A,#0x5
   \   000067   12....       LCALL   ?XSTACK_DISP0_8
   \   00006A   AA82         MOV     R2,DPL
   \   00006C   AB83         MOV     R3,DPH
   \   00006E   12....       LCALL   ??osal_memcpy?relay
   \   000071   7403         MOV     A,#0x3
   \   000073   12....       LCALL   ?DEALLOC_XSTACK8
   \   000076                ; Setup parameters for call to function HalUARTWrite
   \   000076   7C04         MOV     R4,#0x4
   \   000078   7D00         MOV     R5,#0x0
   \   00007A   7402         MOV     A,#0x2
   \   00007C   12....       LCALL   ?XSTACK_DISP0_8
   \   00007F   AA82         MOV     R2,DPL
   \   000081   AB83         MOV     R3,DPH
   \   000083   7900         MOV     R1,#0x0
   \   000085   12....       LCALL   ??HalUARTWrite?relay
   \   000088                ; Setup parameters for call to function HalUARTWrite
   \   000088   7C02         MOV     R4,#0x2
   \   00008A   7D00         MOV     R5,#0x0
   \   00008C   85..82       MOV     DPL,?XSP + 0
   \   00008F   85..83       MOV     DPH,?XSP + 1
   \   000092   AA82         MOV     R2,DPL
   \   000094   AB83         MOV     R3,DPH
   \   000096   7900         MOV     R1,#0x0
   \   000098   12....       LCALL   ??HalUARTWrite?relay
    145                    break;
    146          
    147                  default:
    148                    break;
    149                }
    150          
    151                // Release the memory
    152                osal_msg_deallocate( (uint8 *)MSGpkt );
   \                     ??GenericApp_ProcessEvent_3:
   \   00009B                ; Setup parameters for call to function osal_msg_deallocate
   \   00009B   EE           MOV     A,R6
   \   00009C   FA           MOV     R2,A
   \   00009D   EF           MOV     A,R7
   \   00009E   FB           MOV     R3,A
   \   00009F   12....       LCALL   ??osal_msg_deallocate?relay
    153          
    154                // Next
    155                MSGpkt = (afIncomingMSGPacket_t *)osal_msg_receive( GenericApp_TaskID );
   \   0000A2                ; Setup parameters for call to function osal_msg_receive
   \                     ??GenericApp_ProcessEvent_1:
   \   0000A2   90....       MOV     DPTR,#GenericApp_TaskID
   \   0000A5   E0           MOVX    A,@DPTR
   \   0000A6   F9           MOV     R1,A
   \   0000A7   12....       LCALL   ??osal_msg_receive?relay
   \   0000AA   8A..         MOV     ?V0 + 2,R2
   \   0000AC   8B..         MOV     ?V0 + 3,R3
   \   0000AE   AE..         MOV     R6,?V0 + 2
   \   0000B0   AF..         MOV     R7,?V0 + 3
    156              }
   \   0000B2   EE           MOV     A,R6
   \   0000B3   4F           ORL     A,R7
   \   0000B4   6003         JZ      $+5
   \   0000B6   02....       LJMP    ??GenericApp_ProcessEvent_2 & 0xFFFF
    157          
    158              // return unprocessed events
    159              return (events ^ SYS_EVENT_MSG);
   \   0000B9   AA..         MOV     R2,?V0 + 0
   \   0000BB   E5..         MOV     A,?V0 + 1
   \   0000BD   6480         XRL     A,#0x80
   \   0000BF   FB           MOV     R3,A
   \   0000C0   8004         SJMP    ??GenericApp_ProcessEvent_5
    160            }
    161            // Discard unknown events
    162            return 0;
   \                     ??GenericApp_ProcessEvent_0:
   \   0000C2   7A00         MOV     R2,#0x0
   \   0000C4   7B00         MOV     R3,#0x0
   \                     ??GenericApp_ProcessEvent_5:
   \   0000C6   7406         MOV     A,#0x6
   \   0000C8   12....       LCALL   ?DEALLOC_XSTACK8
   \   0000CB   7F07         MOV     R7,#0x7
   \   0000CD   02....       LJMP    ?BANKED_LEAVE_XDATA
    163          }

   \                                 In  segment BANK_RELAYS, align 1
   \                     ??GenericApp_Init?relay:
   \   000000   12....       LCALL   ?BDISPATCH
   \   000003   ......       DC24    GenericApp_Init

   \                                 In  segment BANK_RELAYS, align 1
   \                     ??GenericApp_ProcessEvent?relay:
   \   000000   12....       LCALL   ?BDISPATCH
   \   000003   ......       DC24    GenericApp_ProcessEvent

   \                                 In  segment XDATA_ROM_C, align 1
   \                     `?<Constant {10, 13}>`:
   \   000000   0A           DB 10
   \   000001   0D           DB 13
    164          
    165          
    166          
    167          /*********************************************************************
    168           * LOCAL FUNCTIONS
    169           */
    170          
    171          /*********************************************************************
    172           * @fn      GenericApp_MessageMSGCB
    173           *
    174           * @brief   Data message processor callback.  This function processes
    175           *          any incoming data - probably from other devices.  So, based
    176           *          on cluster ID, perform the intended action.
    177           *
    178           * @param   none
    179           *
    180           * @return  none
    181           */
    182          static void GenericApp_MessageMSGCB( afIncomingMSGPacket_t *pkt )
    183          {
    184            unsigned char buffer[2] = {0x0a, 0x0d};
    185            Temperature_u temperature;
    186            
    187            switch ( pkt->clusterId )
    188            {
    189              case GENERICAPP_CLUSTERID:
    190                osal_memcpy(&temperature, pkt->cmd.Data, sizeof(temperature));
    191                HalUARTWrite(0, (uint8*)&temperature, sizeof(temperature));
    192                HalUARTWrite(0, buffer, 2);
    193                break;
    194            }
    195          }
    196          

   Maximum stack usage in bytes:

     Function                 ISTACK PSTACK XSTACK
     --------                 ------ ------ ------
     GenericApp_Init              0      0     38
       -> afRegister              0      0     76
       -> HalUARTOpen             0      0     76
     GenericApp_ProcessEvent      2      0     24
       -> osal_msg_receive        0      0     42
       -> osal_memcpy             0      0     48
       -> HalUARTWrite            0      0     42
       -> HalUARTWrite            0      0     42
       -> osal_msg_deallocate     0      0     42
       -> osal_msg_receive        0      0     42


   Segment part sizes:

     Function/Label                  Bytes
     --------------                  -----
     GenericApp_ClusterList             2
     GenericApp_SimpleDesc             12
     GenericApp_epDesc                  6
     GenericApp_TaskID                  1
     GenericApp_TransID                 1
     GenericApp_Init                  107
     GenericApp_ProcessEvent          208
     ??GenericApp_Init?relay            6
     ??GenericApp_ProcessEvent?relay    6
     ?<Constant {10, 13}>               2

 
 315 bytes in segment BANKED_CODE
  12 bytes in segment BANK_RELAYS
  16 bytes in segment XDATA_ROM_C
   8 bytes in segment XDATA_Z
 
 327 bytes of CODE  memory
  16 bytes of CONST memory
   8 bytes of XDATA memory

Errors: none
Warnings: none
