///////////////////////////////////////////////////////////////////////////////
//                                                                            /
// IAR C/C++ Compiler V8.10.3.10338/W32 for 8051        27/Mar/2017  16:47:25 /
// Copyright 2004-2011 IAR Systems AB.                                        /
//                                                                            /
//    Core               =  plain                                             /
//    Code model         =  banked                                            /
//    Data model         =  large                                             /
//    Calling convention =  xdata reentrant                                   /
//    Constant location  =  data_rom                                          /
//    Dptr setup         =  1,16                                              /
//    Source file        =  D:\IAR\ZStack-CC2530-2.5.1a\Projects\zstack\Sampl /
//                          es\GenericApp-Sensor\Source\Enddevices.c          /
//    Command line       =  -f D:\IAR\ZStack-CC2530-2.5.1a\Projects\zstack\Sa /
//                          mples\GenericApp-Sensor\CC2530DB\..\..\..\Tools\C /
//                          C2530DB\f8wEndev.cfg (-DCPU32MHZ                  /
//                          -DROOT=__near_func -DMAC_CFG_TX_DATA_MAX=3        /
//                          -DMAC_CFG_TX_MAX=6 -DMAC_CFG_RX_MAX=3) -f         /
//                          D:\IAR\ZStack-CC2530-2.5.1a\Projects\zstack\Sampl /
//                          es\GenericApp-Sensor\CC2530DB\..\..\..\Tools\CC25 /
//                          30DB\f8wConfig.cfg (-DZIGBEEPRO -DSECURE=0        /
//                          -DZG_SECURE_DYNAMIC=0 -DREFLECTOR                 /
//                          -DDEFAULT_CHANLIST=0x00000800                     /
//                          -DZDAPP_CONFIG_PAN_ID=0xFF4E                      /
//                          -DNWK_START_DELAY=100 -DEXTENDED_JOINING_RANDOM_M /
//                          ASK=0x007F -DBEACON_REQUEST_DELAY=100             /
//                          -DBEACON_REQ_DELAY_MASK=0x00FF                    /
//                          -DLINK_STATUS_JITTER_MASK=0x007F                  /
//                          -DROUTE_EXPIRY_TIME=30 -DAPSC_ACK_WAIT_DURATION_P /
//                          OLLED=3000 -DNWK_INDIRECT_MSG_TIMEOUT=7           /
//                          -DMAX_RREQ_ENTRIES=8 -DAPSC_MAX_FRAME_RETRIES=3   /
//                          -DNWK_MAX_DATA_RETRIES=2                          /
//                          -DMAX_POLL_FAILURE_RETRIES=2 -DMAX_BCAST=9        /
//                          -DAPS_MAX_GROUPS=16 -DMAX_RTG_ENTRIES=40          /
//                          -DNWK_MAX_BINDING_ENTRIES=4                       /
//                          -DMAX_BINDING_CLUSTER_IDS=4                       /
//                          "-DDEFAULT_KEY={0x01, 0x03, 0x05, 0x07, 0x09,     /
//                          0x0B, 0x0D, 0x0F, 0x00, 0x02, 0x04, 0x06, 0x08,   /
//                          0x0A, 0x0C, 0x0D}" -DMAC_MAX_FRAME_SIZE=116       /
//                          -DZDNWKMGR_MIN_TRANSMISSIONS=20 "-DCONST=const    /
//                          __code" -DGENERIC=__generic                       /
//                          -DRFD_RCVC_ALWAYS_ON=FALSE -DPOLL_RATE=1000       /
//                          -DQUEUED_POLL_RATE=100 -DRESPONSE_POLL_RATE=100)  /
//                          -DREJOIN_POLL_RATE=440 D:\IAR\ZStack-CC2530-2.5.1 /
//                          a\Projects\zstack\Samples\GenericApp-Sensor\Sourc /
//                          e\Enddevices.c -D NWK_AUTO_POLL -D ZTOOL_P1 -D    /
//                          MT_TASK -D MT_SYS_FUNC -D MT_ZDO_FUNC -D          /
//                          LCD_SUPPORTED=DEBUG -D xPOWER_SAVING -lC          /
//                          D:\IAR\ZStack-CC2530-2.5.1a\Projects\zstack\Sampl /
//                          es\GenericApp-Sensor\CC2530DB\EndDeviceEB\List\   /
//                          -lA D:\IAR\ZStack-CC2530-2.5.1a\Projects\zstack\S /
//                          amples\GenericApp-Sensor\CC2530DB\EndDeviceEB\Lis /
//                          t\ --diag_suppress Pe001,Pa010 -o                 /
//                          D:\IAR\ZStack-CC2530-2.5.1a\Projects\zstack\Sampl /
//                          es\GenericApp-Sensor\CC2530DB\EndDeviceEB\Obj\    /
//                          -e --no_code_motion --debug --core=plain          /
//                          --dptr=16,1 --data_model=large                    /
//                          --code_model=banked --calling_convention=xdata_re /
//                          entrant --place_constants=data_rom                /
//                          --nr_virtual_regs 16 -I                           /
//                          D:\IAR\ZStack-CC2530-2.5.1a\Projects\zstack\Sampl /
//                          es\GenericApp-Sensor\CC2530DB\ -I                 /
//                          D:\IAR\ZStack-CC2530-2.5.1a\Projects\zstack\Sampl /
//                          es\GenericApp-Sensor\CC2530DB\..\Source\ -I       /
//                          D:\IAR\ZStack-CC2530-2.5.1a\Projects\zstack\Sampl /
//                          es\GenericApp-Sensor\CC2530DB\..\..\..\ZMain\TI25 /
//                          30DB\ -I D:\IAR\ZStack-CC2530-2.5.1a\Projects\zst /
//                          ack\Samples\GenericApp-Sensor\CC2530DB\..\..\..\. /
//                          .\..\Components\hal\include\ -I                   /
//                          D:\IAR\ZStack-CC2530-2.5.1a\Projects\zstack\Sampl /
//                          es\GenericApp-Sensor\CC2530DB\..\..\..\..\..\Comp /
//                          onents\hal\target\CC2530EB\ -I                    /
//                          D:\IAR\ZStack-CC2530-2.5.1a\Projects\zstack\Sampl /
//                          es\GenericApp-Sensor\CC2530DB\..\..\..\..\..\Comp /
//                          onents\mac\include\ -I D:\IAR\ZStack-CC2530-2.5.1 /
//                          a\Projects\zstack\Samples\GenericApp-Sensor\CC253 /
//                          0DB\..\..\..\..\..\Components\mac\high_level\ -I  /
//                          D:\IAR\ZStack-CC2530-2.5.1a\Projects\zstack\Sampl /
//                          es\GenericApp-Sensor\CC2530DB\..\..\..\..\..\Comp /
//                          onents\mac\low_level\srf04\ -I                    /
//                          D:\IAR\ZStack-CC2530-2.5.1a\Projects\zstack\Sampl /
//                          es\GenericApp-Sensor\CC2530DB\..\..\..\..\..\Comp /
//                          onents\mac\low_level\srf04\single_chip\ -I        /
//                          D:\IAR\ZStack-CC2530-2.5.1a\Projects\zstack\Sampl /
//                          es\GenericApp-Sensor\CC2530DB\..\..\..\..\..\Comp /
//                          onents\mt\ -I D:\IAR\ZStack-CC2530-2.5.1a\Project /
//                          s\zstack\Samples\GenericApp-Sensor\CC2530DB\..\.. /
//                          \..\..\..\Components\osal\include\ -I             /
//                          D:\IAR\ZStack-CC2530-2.5.1a\Projects\zstack\Sampl /
//                          es\GenericApp-Sensor\CC2530DB\..\..\..\..\..\Comp /
//                          onents\services\saddr\ -I                         /
//                          D:\IAR\ZStack-CC2530-2.5.1a\Projects\zstack\Sampl /
//                          es\GenericApp-Sensor\CC2530DB\..\..\..\..\..\Comp /
//                          onents\services\sdata\ -I                         /
//                          D:\IAR\ZStack-CC2530-2.5.1a\Projects\zstack\Sampl /
//                          es\GenericApp-Sensor\CC2530DB\..\..\..\..\..\Comp /
//                          onents\stack\af\ -I D:\IAR\ZStack-CC2530-2.5.1a\P /
//                          rojects\zstack\Samples\GenericApp-Sensor\CC2530DB /
//                          \..\..\..\..\..\Components\stack\nwk\ -I          /
//                          D:\IAR\ZStack-CC2530-2.5.1a\Projects\zstack\Sampl /
//                          es\GenericApp-Sensor\CC2530DB\..\..\..\..\..\Comp /
//                          onents\stack\sapi\ -I D:\IAR\ZStack-CC2530-2.5.1a /
//                          \Projects\zstack\Samples\GenericApp-Sensor\CC2530 /
//                          DB\..\..\..\..\..\Components\stack\sec\ -I        /
//                          D:\IAR\ZStack-CC2530-2.5.1a\Projects\zstack\Sampl /
//                          es\GenericApp-Sensor\CC2530DB\..\..\..\..\..\Comp /
//                          onents\stack\sys\ -I D:\IAR\ZStack-CC2530-2.5.1a\ /
//                          Projects\zstack\Samples\GenericApp-Sensor\CC2530D /
//                          B\..\..\..\..\..\Components\stack\zdo\ -I         /
//                          D:\IAR\ZStack-CC2530-2.5.1a\Projects\zstack\Sampl /
//                          es\GenericApp-Sensor\CC2530DB\..\..\..\..\..\Comp /
//                          onents\zmac\ -I D:\IAR\ZStack-CC2530-2.5.1a\Proje /
//                          cts\zstack\Samples\GenericApp-Sensor\CC2530DB\..\ /
//                          ..\..\..\..\Components\zmac\f8w\ -Ohz             /
//                          --require_prototypes                              /
//    List file          =  D:\IAR\ZStack-CC2530-2.5.1a\Projects\zstack\Sampl /
//                          es\GenericApp-Sensor\CC2530DB\EndDeviceEB\List\En /
//                          ddevices.s51                                      /
//                                                                            /
//                                                                            /
///////////////////////////////////////////////////////////////////////////////

        NAME Enddevices

        RTMODEL "__SystemLibrary", "CLib"
        RTMODEL "__calling_convention", "xdata_reentrant"
        RTMODEL "__code_model", "banked"
        RTMODEL "__core", "plain"
        RTMODEL "__data_model", "large"
        RTMODEL "__dptr_size", "16"
        RTMODEL "__extended_stack", "disabled"
        RTMODEL "__location_for_constants", "data"
        RTMODEL "__number_of_dptrs", "1"
        RTMODEL "__rt_version", "1"

        RSEG DOVERLAY:DATA:NOROOT(0)
        RSEG IOVERLAY:IDATA:NOROOT(0)
        RSEG ISTACK:IDATA:NOROOT(0)
        RSEG PSTACK:XDATA:NOROOT(0)
        RSEG XSTACK:XDATA:NOROOT(0)

        EXTERN ?ALLOC_XSTACK8
        EXTERN ?BANKED_ENTER_XDATA
        EXTERN ?BANKED_LEAVE_XDATA
        EXTERN ?BDISPATCH
        EXTERN ?DEALLOC_XSTACK8
        EXTERN ?PUSH_XSTACK_I_ONE
        EXTERN ?PUSH_XSTACK_I_TWO
        EXTERN ?V0
        EXTERN ?XSP
        EXTERN ?XSTACK_DISP0_8
        EXTERN __INIT_XDATA_Z

        PUBLIC ??GenericApp_Init?relay
        FUNCTION ??GenericApp_Init?relay,0203H
        PUBLIC ??GenericApp_ProcessEvent?relay
        FUNCTION ??GenericApp_ProcessEvent?relay,0203H
        FUNCTION ??GenericApp_SendTheMessage?relay,0203H
        PUBLIC GenericApp_ClusterList
        PUBLIC GenericApp_Init
        FUNCTION GenericApp_Init,021203H
        ARGFRAME XSTACK, 0, STACK
        LOCFRAME XSTACK, 9, STACK
        PUBLIC GenericApp_NwkState
        PUBLIC GenericApp_ProcessEvent
        FUNCTION GenericApp_ProcessEvent,021203H
        ARGFRAME XSTACK, 0, STACK
        LOCFRAME XSTACK, 12, STACK
        FUNCTION GenericApp_SendTheMessage,021203H
        ARGFRAME XSTACK, 12, STACK
        ARGFRAME IOVERLAY, 0, STATIC
        ARGFRAME DOVERLAY, 0, STATIC
        LOCFRAME ISTACK, 1, STACK
        LOCFRAME XSTACK, 35, STACK
        PUBLIC GenericApp_SimpleDesc
        PUBLIC GenericApp_TaskID
        PUBLIC GenericApp_TransID
        PUBLIC GenericApp_epDesc
        
        CFI Names cfiNames0
        CFI StackFrame CFA_SP SP IDATA
        CFI StackFrame CFA_PSP16 PSP16 XDATA
        CFI StackFrame CFA_XSP16 XSP16 XDATA
        CFI StaticOverlayFrame CFA_IOVERLAY IOVERLAY
        CFI StaticOverlayFrame CFA_DOVERLAY DOVERLAY
        CFI Resource `PSW.CY`:1, `B.BR0`:1, `B.BR1`:1, `B.BR2`:1, `B.BR3`:1
        CFI Resource `B.BR4`:1, `B.BR5`:1, `B.BR6`:1, `B.BR7`:1, `VB.BR8`:1
        CFI Resource `VB.BR9`:1, `VB.BR10`:1, `VB.BR11`:1, `VB.BR12`:1
        CFI Resource `VB.BR13`:1, `VB.BR14`:1, `VB.BR15`:1, VB:8, B:8, A:8
        CFI Resource PSW:8, DPL0:8, DPH0:8, R0:8, R1:8, R2:8, R3:8, R4:8, R5:8
        CFI Resource R6:8, R7:8, V0:8, V1:8, V2:8, V3:8, V4:8, V5:8, V6:8, V7:8
        CFI Resource V8:8, V9:8, V10:8, V11:8, V12:8, V13:8, V14:8, V15:8, SP:8
        CFI Resource PSPH:8, PSPL:8, PSP16:16, XSPH:8, XSPL:8, XSP16:16
        CFI VirtualResource ?RET:24
        CFI Resource ?BRET_EXT:8
        CFI VirtualResource ?RET_HIGH:8, ?RET_LOW:8
        CFI ResourceParts PSP16 PSPH, PSPL
        CFI ResourceParts XSP16 XSPH, XSPL
        CFI ResourceParts ?RET ?BRET_EXT, ?RET_HIGH, ?RET_LOW
        CFI EndNames cfiNames0
        
        CFI Common cfiCommon0 Using cfiNames0
        CFI CodeAlign 1
        CFI DataAlign -1
        CFI ReturnAddress ?RET CODE
        CFI CFA_DOVERLAY Used
        CFI CFA_IOVERLAY Used
        CFI CFA_SP SP+-3
        CFI CFA_PSP16 PSP16+0
        CFI CFA_XSP16 XSP16+0
        CFI `PSW.CY` SameValue
        CFI `B.BR0` SameValue
        CFI `B.BR1` SameValue
        CFI `B.BR2` SameValue
        CFI `B.BR3` SameValue
        CFI `B.BR4` SameValue
        CFI `B.BR5` SameValue
        CFI `B.BR6` SameValue
        CFI `B.BR7` SameValue
        CFI `VB.BR8` SameValue
        CFI `VB.BR9` SameValue
        CFI `VB.BR10` SameValue
        CFI `VB.BR11` SameValue
        CFI `VB.BR12` SameValue
        CFI `VB.BR13` SameValue
        CFI `VB.BR14` SameValue
        CFI `VB.BR15` SameValue
        CFI VB SameValue
        CFI B Undefined
        CFI A Undefined
        CFI PSW SameValue
        CFI DPL0 SameValue
        CFI DPH0 SameValue
        CFI R0 Undefined
        CFI R1 Undefined
        CFI R2 Undefined
        CFI R3 Undefined
        CFI R4 Undefined
        CFI R5 Undefined
        CFI R6 SameValue
        CFI R7 SameValue
        CFI V0 SameValue
        CFI V1 SameValue
        CFI V2 SameValue
        CFI V3 SameValue
        CFI V4 SameValue
        CFI V5 SameValue
        CFI V6 SameValue
        CFI V7 SameValue
        CFI V8 SameValue
        CFI V9 SameValue
        CFI V10 SameValue
        CFI V11 SameValue
        CFI V12 SameValue
        CFI V13 SameValue
        CFI V14 SameValue
        CFI V15 SameValue
        CFI PSPH Undefined
        CFI PSPL Undefined
        CFI XSPH Undefined
        CFI XSPL Undefined
        CFI ?RET Concat
        CFI ?BRET_EXT Frame(CFA_SP, 3)
        CFI ?RET_HIGH Frame(CFA_SP, 2)
        CFI ?RET_LOW Frame(CFA_SP, 1)
        CFI EndCommon cfiCommon0
        
afRegister          SYMBOL "afRegister"
osal_msg_receive    SYMBOL "osal_msg_receive"
osal_set_event      SYMBOL "osal_set_event"
osal_msg_deallocate SYMBOL "osal_msg_deallocate"
osal_start_timerEx  SYMBOL "osal_start_timerEx"
GetTemperature      SYMBOL "GetTemperature"
AF_DataRequest      SYMBOL "AF_DataRequest"
??AF_DataRequest?relay SYMBOL "?relay", AF_DataRequest
??GetTemperature?relay SYMBOL "?relay", GetTemperature
??afRegister?relay  SYMBOL "?relay", afRegister
??osal_msg_deallocate?relay SYMBOL "?relay", osal_msg_deallocate
??osal_msg_receive?relay SYMBOL "?relay", osal_msg_receive
??osal_set_event?relay SYMBOL "?relay", osal_set_event
??osal_start_timerEx?relay SYMBOL "?relay", osal_start_timerEx
GenericApp_Init     SYMBOL "GenericApp_Init"
??GenericApp_Init?relay SYMBOL "?relay", GenericApp_Init
GenericApp_ProcessEvent SYMBOL "GenericApp_ProcessEvent"
??GenericApp_ProcessEvent?relay SYMBOL "?relay", GenericApp_ProcessEvent

        EXTERN afRegister
        FUNCTION afRegister,0202H
        ARGFRAME ISTACK, 0, STACK
        ARGFRAME PSTACK, 0, STACK
        ARGFRAME XSTACK, 9, STACK
        ARGFRAME IOVERLAY, 0, STATIC
        ARGFRAME DOVERLAY, 0, STATIC
        EXTERN osal_msg_receive
        FUNCTION osal_msg_receive,0202H
        ARGFRAME ISTACK, 0, STACK
        ARGFRAME PSTACK, 0, STACK
        ARGFRAME XSTACK, 12, STACK
        ARGFRAME IOVERLAY, 0, STATIC
        ARGFRAME DOVERLAY, 0, STATIC
        EXTERN osal_set_event
        FUNCTION osal_set_event,0202H
        ARGFRAME ISTACK, 0, STACK
        ARGFRAME PSTACK, 0, STACK
        ARGFRAME XSTACK, 12, STACK
        ARGFRAME IOVERLAY, 0, STATIC
        ARGFRAME DOVERLAY, 0, STATIC
        EXTERN osal_msg_deallocate
        FUNCTION osal_msg_deallocate,0202H
        ARGFRAME ISTACK, 0, STACK
        ARGFRAME PSTACK, 0, STACK
        ARGFRAME XSTACK, 12, STACK
        ARGFRAME IOVERLAY, 0, STATIC
        ARGFRAME DOVERLAY, 0, STATIC
        EXTERN osal_start_timerEx
        FUNCTION osal_start_timerEx,0202H
        ARGFRAME ISTACK, 0, STACK
        ARGFRAME PSTACK, 0, STACK
        ARGFRAME XSTACK, 12, STACK
        ARGFRAME IOVERLAY, 0, STATIC
        ARGFRAME DOVERLAY, 0, STATIC
        EXTERN GetTemperature
        FUNCTION GetTemperature,0202H
        ARGFRAME ISTACK, 0, STACK
        ARGFRAME PSTACK, 0, STACK
        ARGFRAME XSTACK, 26, STACK
        ARGFRAME IOVERLAY, 0, STATIC
        ARGFRAME DOVERLAY, 0, STATIC
        EXTERN AF_DataRequest
        FUNCTION AF_DataRequest,0202H
        ARGFRAME ISTACK, 0, STACK
        ARGFRAME PSTACK, 0, STACK
        ARGFRAME XSTACK, 35, STACK
        ARGFRAME IOVERLAY, 0, STATIC
        ARGFRAME DOVERLAY, 0, STATIC
        EXTERN ??AF_DataRequest?relay
        FUNCTION ??AF_DataRequest?relay,00H
        EXTERN ??GetTemperature?relay
        FUNCTION ??GetTemperature?relay,00H
        EXTERN ??afRegister?relay
        FUNCTION ??afRegister?relay,00H
        EXTERN ??osal_msg_deallocate?relay
        FUNCTION ??osal_msg_deallocate?relay,00H
        EXTERN ??osal_msg_receive?relay
        FUNCTION ??osal_msg_receive?relay,00H
        EXTERN ??osal_set_event?relay
        FUNCTION ??osal_set_event?relay,00H
        EXTERN ??osal_start_timerEx?relay
        FUNCTION ??osal_start_timerEx?relay,00H

// D:\IAR\ZStack-CC2530-2.5.1a\Projects\zstack\Samples\GenericApp-Sensor\Source\Enddevices.c
//    1 
//    2 #include "OSAL.h"
//    3 #include "AF.h"
//    4 #include "ZDApp.h"
//    5 #include "ZDObject.h"
//    6 #include "ZDProfile.h"
//    7 #include <string.h>
//    8 #include "GenericApp.h"
//    9 
//   10 #include "Sensor.h"
//   11 
//   12 #if !defined (WIN32)
//   13 #include "OnBoard.h"
//   14 #endif
//   15 
//   16 #include "hal_lcd.h"
//   17 #include "hal_led.h"
//   18 #include "hal_key.h"
//   19 #include "hal_uart.h"
//   20 
//   21 #define SEND_DATA_EVENT  0x01
//   22 
//   23 
//   24 typedef union h
//   25 {
//   26   uint8 temp[4];
//   27   struct RFRXBUF
//   28   {
//   29     unsigned char Head;       // 命令头
//   30     unsigned char values[2];  // 温度数据
//   31     unsigned char Tail;       // 命令尾
//   32   }Buf;
//   33 }Temperature_u;
//   34 

        RSEG XDATA_ROM_C:CONST:REORDER:NOROOT(0)
        DATA16
//   35 const cId_t GenericApp_ClusterList[GENERICAPP_MAX_CLUSTERS] = 
GenericApp_ClusterList:
        DW 1
//   36 {
//   37   GENERICAPP_CLUSTERID
//   38 };
//   39 

        RSEG XDATA_ROM_C:CONST:REORDER:NOROOT(0)
        DATA8
//   40 const SimpleDescriptionFormat_t GenericApp_SimpleDesc =
GenericApp_SimpleDesc:
        DB 10
        DATA16
        DW 3844
        DW 1
        DATA8
        DB 0
        DB 0
        DATA16
        DW 0H
        DATA8
        DB 1
        DATA16
        DW GenericApp_ClusterList
//   41 {
//   42   GENERICAPP_ENDPOINT,              //  int Endpoint;
//   43   GENERICAPP_PROFID,                //  uint16 AppProfId[2];
//   44   GENERICAPP_DEVICEID,              //  uint16 AppDeviceId[2];
//   45   GENERICAPP_DEVICE_VERSION,        //  int   AppDevVer:4;
//   46   GENERICAPP_FLAGS,                 //  int   AppFlags:4;
//   47   0,          //  byte  AppNumInClusters;
//   48   (cId_t *) NULL,  //  byte *pAppInClusterList;
//   49   GENERICAPP_MAX_CLUSTERS,          //  byte  AppNumInClusters;
//   50   (cId_t *)GenericApp_ClusterList   //  byte *pAppInClusterList;
//   51 };
//   52 
//   53 

        RSEG XDATA_Z:XDATA:NOROOT(0)
        DATA8
//   54 endPointDesc_t GenericApp_epDesc;
GenericApp_epDesc:
        DS 6
        REQUIRE __INIT_XDATA_Z
//   55 

        RSEG XDATA_Z:XDATA:NOROOT(0)
        DATA8
//   56 byte GenericApp_TaskID;   // Task ID for internal task/event processing
GenericApp_TaskID:
        DS 1
        REQUIRE __INIT_XDATA_Z
//   57                           // This variable will be received when
//   58 

        RSEG XDATA_Z:XDATA:NOROOT(0)
        DATA8
//   59 byte GenericApp_TransID;  // This is the unique message ID (counter)
GenericApp_TransID:
        DS 1
        REQUIRE __INIT_XDATA_Z

        RSEG XDATA_Z:XDATA:NOROOT(0)
        DATA8
//   60 devStates_t GenericApp_NwkState;
GenericApp_NwkState:
        DS 1
        REQUIRE __INIT_XDATA_Z
//   61 
//   62 
//   63 static void GenericApp_MessageMSGCB( afIncomingMSGPacket_t *pckt );
//   64 static void GenericApp_SendTheMessage(void);
//   65 int8 readTemp(void);
//   66 
//   67 

        RSEG BANKED_CODE:CODE:NOROOT(0)
//   68 void GenericApp_Init(byte task_id)
GenericApp_Init:
        CFI Block cfiBlock0 Using cfiCommon0
        CFI Function GenericApp_Init
        CODE
//   69 {
        FUNCALL GenericApp_Init, afRegister
        LOCFRAME ISTACK, 0, STACK
        LOCFRAME PSTACK, 0, STACK
        LOCFRAME XSTACK, 9, STACK
        LOCFRAME IOVERLAY, 0, STATIC
        LOCFRAME DOVERLAY, 0, STATIC
        ARGFRAME ISTACK, 0, STACK
        ARGFRAME PSTACK, 0, STACK
        ARGFRAME XSTACK, 9, STACK
        ARGFRAME IOVERLAY, 0, STATIC
        ARGFRAME DOVERLAY, 0, STATIC
        MOV     A,#-0x9
        LCALL   ?BANKED_ENTER_XDATA
        CFI DPH0 load(1, XDATA, add(CFA_XSP16, literal(-1)))
        CFI DPL0 load(1, XDATA, add(CFA_XSP16, literal(-2)))
        CFI ?BRET_EXT load(1, XDATA, add(CFA_XSP16, literal(-3)))
        CFI ?RET_HIGH load(1, XDATA, add(CFA_XSP16, literal(-4)))
        CFI ?RET_LOW load(1, XDATA, add(CFA_XSP16, literal(-5)))
        CFI R7 load(1, XDATA, add(CFA_XSP16, literal(-6)))
        CFI V0 load(1, XDATA, add(CFA_XSP16, literal(-7)))
        CFI VB load(1, XDATA, add(CFA_XSP16, literal(-8)))
        CFI R6 load(1, XDATA, add(CFA_XSP16, literal(-9)))
        CFI CFA_SP SP+0
        CFI CFA_XSP16 add(XSP16, 9)
        ; Saved register size: 9
        ; Auto size: 0
        MOV     A,R1
//   70   GenericApp_TaskID = task_id;
        MOV     DPTR,#GenericApp_TaskID
        MOVX    @DPTR,A
//   71   GenericApp_NwkState = DEV_INIT;
        MOV     DPTR,#GenericApp_NwkState
        MOV     A,#0x1
        MOVX    @DPTR,A
//   72   GenericApp_TransID = 0;
        MOV     DPTR,#GenericApp_TransID
        CLR     A
        MOVX    @DPTR,A
//   73   
//   74   // Fill out the endpoint description.
//   75   GenericApp_epDesc.endPoint = GENERICAPP_ENDPOINT;
        MOV     DPTR,#GenericApp_epDesc
        MOV     A,#0xa
        MOVX    @DPTR,A
//   76   GenericApp_epDesc.task_id = &GenericApp_TaskID;
        INC     DPTR
        MOV     A,#GenericApp_TaskID & 0xff
        MOVX    @DPTR,A
        INC     DPTR
        MOV     A,#(GenericApp_TaskID >> 8) & 0xff
        MOVX    @DPTR,A
//   77   GenericApp_epDesc.simpleDesc
//   78             = (SimpleDescriptionFormat_t *)&GenericApp_SimpleDesc;
        INC     DPTR
        MOV     A,#GenericApp_SimpleDesc & 0xff
        MOVX    @DPTR,A
        INC     DPTR
        MOV     A,#(GenericApp_SimpleDesc >> 8) & 0xff
        MOVX    @DPTR,A
//   79   GenericApp_epDesc.latencyReq = noLatencyReqs;
        INC     DPTR
        CLR     A
        MOVX    @DPTR,A
//   80 
//   81   // Register the endpoint description with the AF
//   82   afRegister( &GenericApp_epDesc );
        ; Setup parameters for call to function afRegister
        MOV     R2,#GenericApp_epDesc & 0xff
        MOV     R3,#(GenericApp_epDesc >> 8) & 0xff
        LCALL   ??afRegister?relay
//   83 
//   84   
//   85 }
        MOV     R7,#0x1
        LJMP    ?BANKED_LEAVE_XDATA
        CFI EndBlock cfiBlock0
//   86 
//   87 

        RSEG BANKED_CODE:CODE:NOROOT(0)
//   88 uint16 GenericApp_ProcessEvent( uint8 task_id, uint16 events )
GenericApp_ProcessEvent:
        CFI Block cfiBlock1 Using cfiCommon0
        CFI Function GenericApp_ProcessEvent
        CODE
//   89 {
        FUNCALL GenericApp_ProcessEvent, osal_msg_receive
        LOCFRAME ISTACK, 0, STACK
        LOCFRAME PSTACK, 0, STACK
        LOCFRAME XSTACK, 12, STACK
        LOCFRAME IOVERLAY, 0, STATIC
        LOCFRAME DOVERLAY, 0, STATIC
        ARGFRAME ISTACK, 0, STACK
        ARGFRAME PSTACK, 0, STACK
        ARGFRAME XSTACK, 12, STACK
        ARGFRAME IOVERLAY, 0, STATIC
        ARGFRAME DOVERLAY, 0, STATIC
        FUNCALL GenericApp_ProcessEvent, osal_set_event
        LOCFRAME ISTACK, 0, STACK
        LOCFRAME PSTACK, 0, STACK
        LOCFRAME XSTACK, 12, STACK
        LOCFRAME IOVERLAY, 0, STATIC
        LOCFRAME DOVERLAY, 0, STATIC
        ARGFRAME ISTACK, 0, STACK
        ARGFRAME PSTACK, 0, STACK
        ARGFRAME XSTACK, 12, STACK
        ARGFRAME IOVERLAY, 0, STATIC
        ARGFRAME DOVERLAY, 0, STATIC
        FUNCALL GenericApp_ProcessEvent, osal_msg_deallocate
        LOCFRAME ISTACK, 0, STACK
        LOCFRAME PSTACK, 0, STACK
        LOCFRAME XSTACK, 12, STACK
        LOCFRAME IOVERLAY, 0, STATIC
        LOCFRAME DOVERLAY, 0, STATIC
        ARGFRAME ISTACK, 0, STACK
        ARGFRAME PSTACK, 0, STACK
        ARGFRAME XSTACK, 12, STACK
        ARGFRAME IOVERLAY, 0, STATIC
        ARGFRAME DOVERLAY, 0, STATIC
        FUNCALL GenericApp_ProcessEvent, osal_msg_receive
        LOCFRAME ISTACK, 0, STACK
        LOCFRAME PSTACK, 0, STACK
        LOCFRAME XSTACK, 12, STACK
        LOCFRAME IOVERLAY, 0, STATIC
        LOCFRAME DOVERLAY, 0, STATIC
        ARGFRAME ISTACK, 0, STACK
        ARGFRAME PSTACK, 0, STACK
        ARGFRAME XSTACK, 12, STACK
        ARGFRAME IOVERLAY, 0, STATIC
        ARGFRAME DOVERLAY, 0, STATIC
        FUNCALL GenericApp_ProcessEvent, GenericApp_SendTheMessage
        LOCFRAME ISTACK, 0, STACK
        LOCFRAME PSTACK, 0, STACK
        LOCFRAME XSTACK, 12, STACK
        LOCFRAME IOVERLAY, 0, STATIC
        LOCFRAME DOVERLAY, 0, STATIC
        ARGFRAME ISTACK, 0, STACK
        ARGFRAME PSTACK, 0, STACK
        ARGFRAME XSTACK, 12, STACK
        ARGFRAME IOVERLAY, 0, STATIC
        ARGFRAME DOVERLAY, 0, STATIC
        FUNCALL GenericApp_ProcessEvent, osal_start_timerEx
        LOCFRAME ISTACK, 0, STACK
        LOCFRAME PSTACK, 0, STACK
        LOCFRAME XSTACK, 12, STACK
        LOCFRAME IOVERLAY, 0, STATIC
        LOCFRAME DOVERLAY, 0, STATIC
        ARGFRAME ISTACK, 0, STACK
        ARGFRAME PSTACK, 0, STACK
        ARGFRAME XSTACK, 12, STACK
        ARGFRAME IOVERLAY, 0, STATIC
        ARGFRAME DOVERLAY, 0, STATIC
        MOV     A,#-0xc
        LCALL   ?BANKED_ENTER_XDATA
        CFI DPH0 load(1, XDATA, add(CFA_XSP16, literal(-1)))
        CFI DPL0 load(1, XDATA, add(CFA_XSP16, literal(-2)))
        CFI ?BRET_EXT load(1, XDATA, add(CFA_XSP16, literal(-3)))
        CFI ?RET_HIGH load(1, XDATA, add(CFA_XSP16, literal(-4)))
        CFI ?RET_LOW load(1, XDATA, add(CFA_XSP16, literal(-5)))
        CFI R7 load(1, XDATA, add(CFA_XSP16, literal(-6)))
        CFI V3 load(1, XDATA, add(CFA_XSP16, literal(-7)))
        CFI V2 load(1, XDATA, add(CFA_XSP16, literal(-8)))
        CFI V1 load(1, XDATA, add(CFA_XSP16, literal(-9)))
        CFI V0 load(1, XDATA, add(CFA_XSP16, literal(-10)))
        CFI VB load(1, XDATA, add(CFA_XSP16, literal(-11)))
        CFI R6 load(1, XDATA, add(CFA_XSP16, literal(-12)))
        CFI CFA_SP SP+0
        CFI CFA_XSP16 add(XSP16, 12)
        ; Saved register size: 12
        ; Auto size: 0
        MOV     A,R2
        MOV     R6,A
        MOV     A,R3
        MOV     R7,A
//   90   afIncomingMSGPacket_t *MSGpkt;
//   91  
//   92   if ( events & SYS_EVENT_MSG )
        ANL     A,#0x80
        JZ      ??GenericApp_ProcessEvent_0
//   93   {
//   94     MSGpkt = (afIncomingMSGPacket_t *)osal_msg_receive( GenericApp_TaskID );
        ; Setup parameters for call to function osal_msg_receive
        SJMP    ??GenericApp_ProcessEvent_1
//   95     while ( MSGpkt )
//   96     {
//   97       switch ( MSGpkt->hdr.event )
??GenericApp_ProcessEvent_2:
        MOV     DPL,?V0 + 0
        MOV     DPH,?V0 + 1
        MOVX    A,@DPTR
        XRL     A,#0xd1
        JNZ     ??GenericApp_ProcessEvent_3
//   98       {
//   99         case ZDO_STATE_CHANGE:
//  100           GenericApp_NwkState = (devStates_t)(MSGpkt->hdr.status);
        INC     DPTR
        MOVX    A,@DPTR
        MOV     DPTR,#GenericApp_NwkState
        MOVX    @DPTR,A
//  101           if (GenericApp_NwkState == DEV_END_DEVICE)
        XRL     A,#0x6
        JNZ     ??GenericApp_ProcessEvent_3
//  102           {
//  103             osal_set_event(GenericApp_TaskID, SEND_DATA_EVENT);
        ; Setup parameters for call to function osal_set_event
        MOV     R2,#0x1
        MOV     R3,#0x0
        MOV     DPTR,#GenericApp_TaskID
        MOVX    A,@DPTR
        MOV     R1,A
        LCALL   ??osal_set_event?relay
//  104           }
//  105           break;        
//  106         
//  107         case AF_INCOMING_MSG_CMD:
//  108           GenericApp_MessageMSGCB( MSGpkt );
//  109           break;
//  110 
//  111         default:
//  112           break;
//  113       }
//  114 
//  115       // Release the memory
//  116       osal_msg_deallocate( (uint8 *)MSGpkt );
??GenericApp_ProcessEvent_3:
        ; Setup parameters for call to function osal_msg_deallocate
        MOV     R2,?V0 + 0
        MOV     R3,?V0 + 1
        LCALL   ??osal_msg_deallocate?relay
//  117 
//  118       // Next
//  119       MSGpkt = (afIncomingMSGPacket_t *)osal_msg_receive( GenericApp_TaskID );
        ; Setup parameters for call to function osal_msg_receive
??GenericApp_ProcessEvent_1:
        MOV     DPTR,#GenericApp_TaskID
        MOVX    A,@DPTR
        MOV     R1,A
        LCALL   ??osal_msg_receive?relay
        MOV     ?V0 + 0,R2
        MOV     ?V0 + 1,R3
//  120     }
        MOV     A,?V0 + 0
        ORL     A,?V0 + 1
        JNZ     ??GenericApp_ProcessEvent_2
//  121 
//  122     // return unprocessed events
//  123     return (events ^ SYS_EVENT_MSG);
        MOV     A,R6
        MOV     R2,A
        MOV     A,R7
        XRL     A,#0x80
??GenericApp_ProcessEvent_4:
        MOV     R3,A
        SJMP    ??GenericApp_ProcessEvent_5
//  124   }
//  125   
//  126   if (events & SEND_DATA_EVENT)
??GenericApp_ProcessEvent_0:
        MOV     A,R6
        MOV     C,0xE0 /* A   */.0
        JNC     ??GenericApp_ProcessEvent_6
//  127   {
//  128     GenericApp_SendTheMessage();
        ; Setup parameters for call to function GenericApp_SendTheMessage
        LCALL   ??GenericApp_SendTheMessage?relay
//  129     osal_start_timerEx(GenericApp_TaskID, SEND_DATA_EVENT, 1000);
        ; Setup parameters for call to function osal_start_timerEx
        MOV     R4,#-0x18
        MOV     R5,#0x3
        MOV     R2,#0x1
        MOV     R3,#0x0
        MOV     DPTR,#GenericApp_TaskID
        MOVX    A,@DPTR
        MOV     R1,A
        LCALL   ??osal_start_timerEx?relay
//  130     return (events ^ SEND_DATA_EVENT);
        MOV     A,R6
        XRL     A,#0x1
        MOV     R2,A
        MOV     A,R7
        SJMP    ??GenericApp_ProcessEvent_4
//  131   }
//  132   
//  133   
//  134   // Discard unknown events
//  135   return 0;
??GenericApp_ProcessEvent_6:
        MOV     R2,#0x0
        MOV     R3,#0x0
??GenericApp_ProcessEvent_5:
        MOV     R7,#0x4
        LJMP    ?BANKED_LEAVE_XDATA
        CFI EndBlock cfiBlock1
//  136 }
//  137 
//  138 
//  139 
//  140 /*********************************************************************
//  141  * LOCAL FUNCTIONS
//  142  */
//  143 
//  144 /*********************************************************************
//  145  * @fn      GenericApp_MessageMSGCB
//  146  *
//  147  * @brief   Data message processor callback.  This function processes
//  148  *          any incoming data - probably from other devices.  So, based
//  149  *          on cluster ID, perform the intended action.
//  150  *
//  151  * @param   none
//  152  *
//  153  * @return  none
//  154  */
//  155 static void GenericApp_MessageMSGCB( afIncomingMSGPacket_t *pkt )
//  156 {
//  157 
//  158   
//  159   switch ( pkt->clusterId )
//  160   {
//  161     case GENERICAPP_CLUSTERID:
//  162       break;
//  163   }
//  164 }
//  165 
//  166 

        RSEG BANKED_CODE:CODE:NOROOT(0)
//  167 void GenericApp_SendTheMessage(void)
GenericApp_SendTheMessage:
        CFI Block cfiBlock2 Using cfiCommon0
        CFI Function GenericApp_SendTheMessage
        CODE
//  168 {
        FUNCALL GenericApp_SendTheMessage, GetTemperature
        LOCFRAME ISTACK, 0, STACK
        LOCFRAME PSTACK, 0, STACK
        LOCFRAME XSTACK, 26, STACK
        LOCFRAME IOVERLAY, 0, STATIC
        LOCFRAME DOVERLAY, 0, STATIC
        ARGFRAME ISTACK, 0, STACK
        ARGFRAME PSTACK, 0, STACK
        ARGFRAME XSTACK, 26, STACK
        ARGFRAME IOVERLAY, 0, STATIC
        ARGFRAME DOVERLAY, 0, STATIC
        FUNCALL GenericApp_SendTheMessage, AF_DataRequest
        LOCFRAME ISTACK, 0, STACK
        LOCFRAME PSTACK, 0, STACK
        LOCFRAME XSTACK, 35, STACK
        LOCFRAME IOVERLAY, 0, STATIC
        LOCFRAME DOVERLAY, 0, STATIC
        ARGFRAME ISTACK, 0, STACK
        ARGFRAME PSTACK, 0, STACK
        ARGFRAME XSTACK, 35, STACK
        ARGFRAME IOVERLAY, 0, STATIC
        ARGFRAME DOVERLAY, 0, STATIC
        MOV     A,#-0xa
        LCALL   ?BANKED_ENTER_XDATA
        CFI DPH0 load(1, XDATA, add(CFA_XSP16, literal(-1)))
        CFI DPL0 load(1, XDATA, add(CFA_XSP16, literal(-2)))
        CFI ?BRET_EXT load(1, XDATA, add(CFA_XSP16, literal(-3)))
        CFI ?RET_HIGH load(1, XDATA, add(CFA_XSP16, literal(-4)))
        CFI ?RET_LOW load(1, XDATA, add(CFA_XSP16, literal(-5)))
        CFI R7 load(1, XDATA, add(CFA_XSP16, literal(-6)))
        CFI V1 load(1, XDATA, add(CFA_XSP16, literal(-7)))
        CFI V0 load(1, XDATA, add(CFA_XSP16, literal(-8)))
        CFI VB load(1, XDATA, add(CFA_XSP16, literal(-9)))
        CFI R6 load(1, XDATA, add(CFA_XSP16, literal(-10)))
        CFI CFA_SP SP+0
        CFI CFA_XSP16 add(XSP16, 10)
        ; Saved register size: 10
        ; Auto size: 16
        MOV     A,#-0x10
        LCALL   ?ALLOC_XSTACK8
        CFI CFA_XSP16 add(XSP16, 26)
//  169   uint8 tvalues;
//  170   Temperature_u temperature;
//  171   temperature.Buf.Head = '&';
        MOV     DPL,?XSP + 0
        MOV     DPH,?XSP + 1
        MOV     A,#0x26
        MOVX    @DPTR,A
//  172   tvalues = GetTemperature();
        ; Setup parameters for call to function GetTemperature
        LCALL   ??GetTemperature?relay
        MOV     A,R1
        MOV     R0,A
//  173   temperature.Buf.values[0] = tvalues / 10 + '0';
        MOV     B,#0xa
        DIV     AB
        ADD     A,#0x30
        PUSH    A
        CFI CFA_SP SP+-1
        MOV     A,#0x1
        LCALL   ?XSTACK_DISP0_8
        POP     A
        CFI CFA_SP SP+0
        MOVX    @DPTR,A
//  174   temperature.Buf.values[1] = tvalues % 10 + '0';
        MOV     A,R0
        MOV     B,#0xa
        DIV     AB
        MOV     A,B
        ADD     A,#0x30
        PUSH    A
        CFI CFA_SP SP+-1
        MOV     A,#0x2
        LCALL   ?XSTACK_DISP0_8
        POP     A
        CFI CFA_SP SP+0
        MOVX    @DPTR,A
//  175   temperature.Buf.Tail = 'C';
        MOV     A,#0x3
        LCALL   ?XSTACK_DISP0_8
        MOV     A,#0x43
        MOVX    @DPTR,A
//  176   
//  177   afAddrType_t myDstAddr;
//  178   myDstAddr.addrMode = (afAddrMode_t)Addr16Bit;
        MOV     A,#0xc
        LCALL   ?XSTACK_DISP0_8
        MOV     A,#0x2
        MOVX    @DPTR,A
//  179   myDstAddr.endPoint = GENERICAPP_ENDPOINT;
        MOV     A,#0xd
        LCALL   ?XSTACK_DISP0_8
        MOV     A,#0xa
        MOVX    @DPTR,A
//  180   myDstAddr.addr.shortAddr = 0x0000;
        MOV     A,#0x4
        LCALL   ?XSTACK_DISP0_8
        CLR     A
        MOVX    @DPTR,A
        INC     DPTR
        MOVX    @DPTR,A
//  181   AF_DataRequest(&myDstAddr, &GenericApp_epDesc,
//  182                  GENERICAPP_CLUSTERID,
//  183                  sizeof(temperature),
//  184                  (uint8*)&temperature,
//  185                  &GenericApp_TransID,
//  186                  AF_DISCV_ROUTE,
//  187                  AF_DEFAULT_RADIUS);
        ; Setup parameters for call to function AF_DataRequest
        MOV     ?V0 + 0,#0x1e
        MOV     R0,#?V0 + 0
        LCALL   ?PUSH_XSTACK_I_ONE
        CFI CFA_XSP16 add(XSP16, 27)
        MOV     ?V0 + 0,#GenericApp_TransID & 0xff
        MOV     ?V0 + 1,#(GenericApp_TransID >> 8) & 0xff
        MOV     R0,#?V0 + 0
        LCALL   ?PUSH_XSTACK_I_TWO
        CFI CFA_XSP16 add(XSP16, 29)
        MOV     A,#0x3
        LCALL   ?XSTACK_DISP0_8
        MOV     ?V0 + 0,DPL
        MOV     ?V0 + 1,DPH
        MOV     R0,#?V0 + 0
        LCALL   ?PUSH_XSTACK_I_TWO
        CFI CFA_XSP16 add(XSP16, 31)
        MOV     ?V0 + 0,#0x4
        MOV     ?V0 + 1,#0x0
        MOV     R0,#?V0 + 0
        LCALL   ?PUSH_XSTACK_I_TWO
        CFI CFA_XSP16 add(XSP16, 33)
        MOV     ?V0 + 0,#0x1
        MOV     R0,#?V0 + 0
        LCALL   ?PUSH_XSTACK_I_TWO
        CFI CFA_XSP16 add(XSP16, 35)
        MOV     R1,#0x20
        MOV     R4,#GenericApp_epDesc & 0xff
        MOV     R5,#(GenericApp_epDesc >> 8) & 0xff
        MOV     A,#0xd
        LCALL   ?XSTACK_DISP0_8
        MOV     R2,DPL
        MOV     R3,DPH
        LCALL   ??AF_DataRequest?relay
        MOV     A,#0x9
        LCALL   ?DEALLOC_XSTACK8
        CFI CFA_XSP16 add(XSP16, 26)
//  188 }
        MOV     A,#0x10
        LCALL   ?DEALLOC_XSTACK8
        CFI CFA_XSP16 add(XSP16, 10)
        MOV     R7,#0x2
        LJMP    ?BANKED_LEAVE_XDATA
        CFI EndBlock cfiBlock2

        RSEG BANK_RELAYS:CODE:REORDER:NOROOT(0)
??GenericApp_Init?relay:
        LCALL   ?BDISPATCH
        DATA
        DC24    GenericApp_Init

        RSEG BANK_RELAYS:CODE:REORDER:NOROOT(0)
??GenericApp_ProcessEvent?relay:
        LCALL   ?BDISPATCH
        DATA
        DC24    GenericApp_ProcessEvent

        RSEG BANK_RELAYS:CODE:REORDER:NOROOT(0)
??GenericApp_SendTheMessage?relay:
        LCALL   ?BDISPATCH
        DATA
        DC24    GenericApp_SendTheMessage

        END
// 
// 358 bytes in segment BANKED_CODE
//  18 bytes in segment BANK_RELAYS
//  14 bytes in segment XDATA_ROM_C
//   9 bytes in segment XDATA_Z
// 
// 376 bytes of CODE  memory
//  14 bytes of CONST memory
//   9 bytes of XDATA memory
//
//Errors: none
//Warnings: none
