///////////////////////////////////////////////////////////////////////////////
//                                                                            /
// IAR C/C++ Compiler V8.10.3.10338/W32 for 8051        24/Mar/2017  14:34:21 /
// Copyright 2004-2011 IAR Systems AB.                                        /
//                                                                            /
//    Core               =  plain                                             /
//    Code model         =  banked                                            /
//    Data model         =  large                                             /
//    Calling convention =  xdata reentrant                                   /
//    Constant location  =  data_rom                                          /
//    Dptr setup         =  1,16                                              /
//    Source file        =  D:\Texas Instruments\ZStack-CC2530-2.5.1a\Project /
//                          s\zstack\Samples\GenericApp-Group-Test\Source\Coo /
//                          rdinator.c                                        /
//    Command line       =  -f "D:\Texas Instruments\ZStack-CC2530-2.5.1a\Pro /
//                          jects\zstack\Samples\GenericApp-Group-Test\CC2530 /
//                          DB\..\..\..\Tools\CC2530DB\f8wCoord.cfg"          /
//                          (-DCPU32MHZ -DROOT=__near_func                    /
//                          -DMAC_CFG_APP_PENDING_QUEUE=TRUE                  /
//                          -DMAC_CFG_TX_DATA_MAX=5 -DMAC_CFG_TX_MAX=8        /
//                          -DMAC_CFG_RX_MAX=5 -DZDO_COORDINATOR -DRTR_NWK)   /
//                          -f "D:\Texas Instruments\ZStack-CC2530-2.5.1a\Pro /
//                          jects\zstack\Samples\GenericApp-Group-Test\CC2530 /
//                          DB\..\..\..\Tools\CC2530DB\f8wConfig.cfg"         /
//                          (-DZIGBEEPRO -DSECURE=0 -DZG_SECURE_DYNAMIC=0     /
//                          -DREFLECTOR -DDEFAULT_CHANLIST=0x00000800         /
//                          -DZDAPP_CONFIG_PAN_ID=0xFFFF                      /
//                          -DNWK_START_DELAY=100 -DEXTENDED_JOINING_RANDOM_M /
//                          ASK=0x007F -DBEACON_REQUEST_DELAY=100             /
//                          -DBEACON_REQ_DELAY_MASK=0x00FF                    /
//                          -DLINK_STATUS_JITTER_MASK=0x007F                  /
//                          -DROUTE_EXPIRY_TIME=30 -DAPSC_ACK_WAIT_DURATION_P /
//                          OLLED=3000 -DNWK_INDIRECT_MSG_TIMEOUT=7           /
//                          -DMAX_RREQ_ENTRIES=8 -DAPSC_MAX_FRAME_RETRIES=3   /
//                          -DNWK_MAX_DATA_RETRIES=2                          /
//                          -DMAX_POLL_FAILURE_RETRIES=2 -DMAX_BCAST=9        /
//                          -DAPS_MAX_GROUPS=16 -DMAX_RTG_ENTRIES=40          /
//                          -DNWK_MAX_BINDING_ENTRIES=4                       /
//                          -DMAX_BINDING_CLUSTER_IDS=4                       /
//                          "-DDEFAULT_KEY={0x01, 0x03, 0x05, 0x07, 0x09,     /
//                          0x0B, 0x0D, 0x0F, 0x00, 0x02, 0x04, 0x06, 0x08,   /
//                          0x0A, 0x0C, 0x0D}" -DMAC_MAX_FRAME_SIZE=116       /
//                          -DZDNWKMGR_MIN_TRANSMISSIONS=20 "-DCONST=const    /
//                          __code" -DGENERIC=__generic                       /
//                          -DRFD_RCVC_ALWAYS_ON=FALSE -DPOLL_RATE=1000       /
//                          -DQUEUED_POLL_RATE=100 -DRESPONSE_POLL_RATE=100)  /
//                          -DREJOIN_POLL_RATE=440 "D:\Texas                  /
//                          Instruments\ZStack-CC2530-2.5.1a\Projects\zstack\ /
//                          Samples\GenericApp-Group-Test\Source\Coordinator. /
//                          c" -D ZTOOL_P1 -D MT_TASK -D MT_SYS_FUNC -D       /
//                          MT_ZDO_FUNC -D LCD_SUPPORTED=DEBUG -lC "D:\Texas  /
//                          Instruments\ZStack-CC2530-2.5.1a\Projects\zstack\ /
//                          Samples\GenericApp-Group-Test\CC2530DB\Coordinato /
//                          rEB\List\" -lA "D:\Texas                          /
//                          Instruments\ZStack-CC2530-2.5.1a\Projects\zstack\ /
//                          Samples\GenericApp-Group-Test\CC2530DB\Coordinato /
//                          rEB\List\" --diag_suppress Pe001,Pa010 -o         /
//                          "D:\Texas Instruments\ZStack-CC2530-2.5.1a\Projec /
//                          ts\zstack\Samples\GenericApp-Group-Test\CC2530DB\ /
//                          CoordinatorEB\Obj\" -e --no_code_motion --debug   /
//                          --core=plain --dptr=16,1 --data_model=large       /
//                          --code_model=banked --calling_convention=xdata_re /
//                          entrant --place_constants=data_rom                /
//                          --nr_virtual_regs 16 -I "D:\Texas                 /
//                          Instruments\ZStack-CC2530-2.5.1a\Projects\zstack\ /
//                          Samples\GenericApp-Group-Test\CC2530DB\" -I       /
//                          "D:\Texas Instruments\ZStack-CC2530-2.5.1a\Projec /
//                          ts\zstack\Samples\GenericApp-Group-Test\CC2530DB\ /
//                          ..\Source\" -I "D:\Texas                          /
//                          Instruments\ZStack-CC2530-2.5.1a\Projects\zstack\ /
//                          Samples\GenericApp-Group-Test\CC2530DB\..\..\..\Z /
//                          Main\TI2530DB\" -I "D:\Texas                      /
//                          Instruments\ZStack-CC2530-2.5.1a\Projects\zstack\ /
//                          Samples\GenericApp-Group-Test\CC2530DB\..\..\..\. /
//                          .\..\Components\hal\include\" -I "D:\Texas        /
//                          Instruments\ZStack-CC2530-2.5.1a\Projects\zstack\ /
//                          Samples\GenericApp-Group-Test\CC2530DB\..\..\..\. /
//                          .\..\Components\hal\target\CC2530EB\" -I          /
//                          "D:\Texas Instruments\ZStack-CC2530-2.5.1a\Projec /
//                          ts\zstack\Samples\GenericApp-Group-Test\CC2530DB\ /
//                          ..\..\..\..\..\Components\mac\include\" -I        /
//                          "D:\Texas Instruments\ZStack-CC2530-2.5.1a\Projec /
//                          ts\zstack\Samples\GenericApp-Group-Test\CC2530DB\ /
//                          ..\..\..\..\..\Components\mac\high_level\" -I     /
//                          "D:\Texas Instruments\ZStack-CC2530-2.5.1a\Projec /
//                          ts\zstack\Samples\GenericApp-Group-Test\CC2530DB\ /
//                          ..\..\..\..\..\Components\mac\low_level\srf04\"   /
//                          -I "D:\Texas Instruments\ZStack-CC2530-2.5.1a\Pro /
//                          jects\zstack\Samples\GenericApp-Group-Test\CC2530 /
//                          DB\..\..\..\..\..\Components\mac\low_level\srf04\ /
//                          single_chip\" -I "D:\Texas                        /
//                          Instruments\ZStack-CC2530-2.5.1a\Projects\zstack\ /
//                          Samples\GenericApp-Group-Test\CC2530DB\..\..\..\. /
//                          .\..\Components\mt\" -I "D:\Texas                 /
//                          Instruments\ZStack-CC2530-2.5.1a\Projects\zstack\ /
//                          Samples\GenericApp-Group-Test\CC2530DB\..\..\..\. /
//                          .\..\Components\osal\include\" -I "D:\Texas       /
//                          Instruments\ZStack-CC2530-2.5.1a\Projects\zstack\ /
//                          Samples\GenericApp-Group-Test\CC2530DB\..\..\..\. /
//                          .\..\Components\services\saddr\" -I "D:\Texas     /
//                          Instruments\ZStack-CC2530-2.5.1a\Projects\zstack\ /
//                          Samples\GenericApp-Group-Test\CC2530DB\..\..\..\. /
//                          .\..\Components\services\sdata\" -I "D:\Texas     /
//                          Instruments\ZStack-CC2530-2.5.1a\Projects\zstack\ /
//                          Samples\GenericApp-Group-Test\CC2530DB\..\..\..\. /
//                          .\..\Components\stack\af\" -I "D:\Texas           /
//                          Instruments\ZStack-CC2530-2.5.1a\Projects\zstack\ /
//                          Samples\GenericApp-Group-Test\CC2530DB\..\..\..\. /
//                          .\..\Components\stack\nwk\" -I "D:\Texas          /
//                          Instruments\ZStack-CC2530-2.5.1a\Projects\zstack\ /
//                          Samples\GenericApp-Group-Test\CC2530DB\..\..\..\. /
//                          .\..\Components\stack\sapi\" -I "D:\Texas         /
//                          Instruments\ZStack-CC2530-2.5.1a\Projects\zstack\ /
//                          Samples\GenericApp-Group-Test\CC2530DB\..\..\..\. /
//                          .\..\Components\stack\sec\" -I "D:\Texas          /
//                          Instruments\ZStack-CC2530-2.5.1a\Projects\zstack\ /
//                          Samples\GenericApp-Group-Test\CC2530DB\..\..\..\. /
//                          .\..\Components\stack\sys\" -I "D:\Texas          /
//                          Instruments\ZStack-CC2530-2.5.1a\Projects\zstack\ /
//                          Samples\GenericApp-Group-Test\CC2530DB\..\..\..\. /
//                          .\..\Components\stack\zdo\" -I "D:\Texas          /
//                          Instruments\ZStack-CC2530-2.5.1a\Projects\zstack\ /
//                          Samples\GenericApp-Group-Test\CC2530DB\..\..\..\. /
//                          .\..\Components\zmac\" -I "D:\Texas               /
//                          Instruments\ZStack-CC2530-2.5.1a\Projects\zstack\ /
//                          Samples\GenericApp-Group-Test\CC2530DB\..\..\..\. /
//                          .\..\Components\zmac\f8w\" -Ohz                   /
//                          --require_prototypes                              /
//    List file          =  D:\Texas Instruments\ZStack-CC2530-2.5.1a\Project /
//                          s\zstack\Samples\GenericApp-Group-Test\CC2530DB\C /
//                          oordinatorEB\List\Coordinator.s51                 /
//                                                                            /
//                                                                            /
///////////////////////////////////////////////////////////////////////////////

        NAME Coordinator

        RTMODEL "__SystemLibrary", "CLib"
        RTMODEL "__calling_convention", "xdata_reentrant"
        RTMODEL "__code_model", "banked"
        RTMODEL "__core", "plain"
        RTMODEL "__data_model", "large"
        RTMODEL "__dptr_size", "16"
        RTMODEL "__extended_stack", "disabled"
        RTMODEL "__location_for_constants", "data"
        RTMODEL "__number_of_dptrs", "1"
        RTMODEL "__rt_version", "1"

        RSEG DOVERLAY:DATA:NOROOT(0)
        RSEG IOVERLAY:IDATA:NOROOT(0)
        RSEG ISTACK:IDATA:NOROOT(0)
        RSEG PSTACK:XDATA:NOROOT(0)
        RSEG XSTACK:XDATA:NOROOT(0)

        EXTERN ?ALLOC_XSTACK8
        EXTERN ?BANKED_ENTER_XDATA
        EXTERN ?BANKED_LEAVE_XDATA
        EXTERN ?BDISPATCH
        EXTERN ?DEALLOC_XSTACK8
        EXTERN ?MOVE_LONG8_XDATA_XDATA
        EXTERN ?PUSH_XSTACK_I_ONE
        EXTERN ?PUSH_XSTACK_I_THREE
        EXTERN ?PUSH_XSTACK_I_TWO
        EXTERN ?V0
        EXTERN ?XSP
        EXTERN ?XSTACK_DISP0_8
        EXTERN __INIT_XDATA_Z

        PUBLIC ??GenericApp_Init?relay
        FUNCTION ??GenericApp_Init?relay,0203H
        FUNCTION ??GenericApp_MessageMSGCB?relay,0203H
        PUBLIC ??GenericApp_ProcessEvent?relay
        FUNCTION ??GenericApp_ProcessEvent?relay,0203H
        PUBLIC GenericApp_ClusterList
        PUBLIC GenericApp_Group
        PUBLIC GenericApp_Init
        FUNCTION GenericApp_Init,021203H
        ARGFRAME XSTACK, 0, STACK
        LOCFRAME XSTACK, 43, STACK
        FUNCTION GenericApp_MessageMSGCB,021203H
        ARGFRAME XSTACK, 27, STACK
        ARGFRAME IOVERLAY, 0, STATIC
        ARGFRAME DOVERLAY, 0, STATIC
        LOCFRAME XSTACK, 64, STACK
        PUBLIC GenericApp_NwkState
        PUBLIC GenericApp_ProcessEvent
        FUNCTION GenericApp_ProcessEvent,021203H
        ARGFRAME XSTACK, 0, STACK
        LOCFRAME ISTACK, 2, STACK
        LOCFRAME XSTACK, 36, STACK
        PUBLIC GenericApp_SimpleDesc
        PUBLIC GenericApp_TaskID
        PUBLIC GenericApp_TransID
        PUBLIC GenericApp_epDesc
        
        CFI Names cfiNames0
        CFI StackFrame CFA_SP SP IDATA
        CFI StackFrame CFA_PSP16 PSP16 XDATA
        CFI StackFrame CFA_XSP16 XSP16 XDATA
        CFI StaticOverlayFrame CFA_IOVERLAY IOVERLAY
        CFI StaticOverlayFrame CFA_DOVERLAY DOVERLAY
        CFI Resource `PSW.CY`:1, `B.BR0`:1, `B.BR1`:1, `B.BR2`:1, `B.BR3`:1
        CFI Resource `B.BR4`:1, `B.BR5`:1, `B.BR6`:1, `B.BR7`:1, `VB.BR8`:1
        CFI Resource `VB.BR9`:1, `VB.BR10`:1, `VB.BR11`:1, `VB.BR12`:1
        CFI Resource `VB.BR13`:1, `VB.BR14`:1, `VB.BR15`:1, VB:8, B:8, A:8
        CFI Resource PSW:8, DPL0:8, DPH0:8, R0:8, R1:8, R2:8, R3:8, R4:8, R5:8
        CFI Resource R6:8, R7:8, V0:8, V1:8, V2:8, V3:8, V4:8, V5:8, V6:8, V7:8
        CFI Resource V8:8, V9:8, V10:8, V11:8, V12:8, V13:8, V14:8, V15:8, SP:8
        CFI Resource PSPH:8, PSPL:8, PSP16:16, XSPH:8, XSPL:8, XSP16:16
        CFI VirtualResource ?RET:24
        CFI Resource ?BRET_EXT:8
        CFI VirtualResource ?RET_HIGH:8, ?RET_LOW:8
        CFI ResourceParts PSP16 PSPH, PSPL
        CFI ResourceParts XSP16 XSPH, XSPL
        CFI ResourceParts ?RET ?BRET_EXT, ?RET_HIGH, ?RET_LOW
        CFI EndNames cfiNames0
        
        CFI Common cfiCommon0 Using cfiNames0
        CFI CodeAlign 1
        CFI DataAlign -1
        CFI ReturnAddress ?RET CODE
        CFI CFA_DOVERLAY Used
        CFI CFA_IOVERLAY Used
        CFI CFA_SP SP+-3
        CFI CFA_PSP16 PSP16+0
        CFI CFA_XSP16 XSP16+0
        CFI `PSW.CY` SameValue
        CFI `B.BR0` SameValue
        CFI `B.BR1` SameValue
        CFI `B.BR2` SameValue
        CFI `B.BR3` SameValue
        CFI `B.BR4` SameValue
        CFI `B.BR5` SameValue
        CFI `B.BR6` SameValue
        CFI `B.BR7` SameValue
        CFI `VB.BR8` SameValue
        CFI `VB.BR9` SameValue
        CFI `VB.BR10` SameValue
        CFI `VB.BR11` SameValue
        CFI `VB.BR12` SameValue
        CFI `VB.BR13` SameValue
        CFI `VB.BR14` SameValue
        CFI `VB.BR15` SameValue
        CFI VB SameValue
        CFI B Undefined
        CFI A Undefined
        CFI PSW SameValue
        CFI DPL0 SameValue
        CFI DPH0 SameValue
        CFI R0 Undefined
        CFI R1 Undefined
        CFI R2 Undefined
        CFI R3 Undefined
        CFI R4 Undefined
        CFI R5 Undefined
        CFI R6 SameValue
        CFI R7 SameValue
        CFI V0 SameValue
        CFI V1 SameValue
        CFI V2 SameValue
        CFI V3 SameValue
        CFI V4 SameValue
        CFI V5 SameValue
        CFI V6 SameValue
        CFI V7 SameValue
        CFI V8 SameValue
        CFI V9 SameValue
        CFI V10 SameValue
        CFI V11 SameValue
        CFI V12 SameValue
        CFI V13 SameValue
        CFI V14 SameValue
        CFI V15 SameValue
        CFI PSPH Undefined
        CFI PSPL Undefined
        CFI XSPH Undefined
        CFI XSPL Undefined
        CFI ?RET Concat
        CFI ?BRET_EXT Frame(CFA_SP, 3)
        CFI ?RET_HIGH Frame(CFA_SP, 2)
        CFI ?RET_LOW Frame(CFA_SP, 1)
        CFI EndCommon cfiCommon0
        
afRegister          SYMBOL "afRegister"
osal_memcpy         SYMBOL "osal_memcpy"
aps_AddGroup        SYMBOL "aps_AddGroup"
HalUARTOpen         SYMBOL "HalUARTOpen"
osal_msg_receive    SYMBOL "osal_msg_receive"
osal_start_timerEx  SYMBOL "osal_start_timerEx"
osal_msg_deallocate SYMBOL "osal_msg_deallocate"
osal_strlen         SYMBOL "osal_strlen"
AF_DataRequest      SYMBOL "AF_DataRequest"
HalLedSet           SYMBOL "HalLedSet"
HalUARTWrite        SYMBOL "HalUARTWrite"
??AF_DataRequest?relay SYMBOL "?relay", AF_DataRequest
??HalLedSet?relay   SYMBOL "?relay", HalLedSet
??HalUARTOpen?relay SYMBOL "?relay", HalUARTOpen
??HalUARTWrite?relay SYMBOL "?relay", HalUARTWrite
??afRegister?relay  SYMBOL "?relay", afRegister
??aps_AddGroup?relay SYMBOL "?relay", aps_AddGroup
??osal_memcpy?relay SYMBOL "?relay", osal_memcpy
??osal_msg_deallocate?relay SYMBOL "?relay", osal_msg_deallocate
??osal_msg_receive?relay SYMBOL "?relay", osal_msg_receive
??osal_start_timerEx?relay SYMBOL "?relay", osal_start_timerEx
??osal_strlen?relay SYMBOL "?relay", osal_strlen
GenericApp_Init     SYMBOL "GenericApp_Init"
??GenericApp_Init?relay SYMBOL "?relay", GenericApp_Init
GenericApp_ProcessEvent SYMBOL "GenericApp_ProcessEvent"
??GenericApp_ProcessEvent?relay SYMBOL "?relay", GenericApp_ProcessEvent

        EXTERN afRegister
        FUNCTION afRegister,0202H
        ARGFRAME ISTACK, 0, STACK
        ARGFRAME PSTACK, 0, STACK
        ARGFRAME XSTACK, 40, STACK
        ARGFRAME IOVERLAY, 0, STATIC
        ARGFRAME DOVERLAY, 0, STATIC
        EXTERN osal_memcpy
        FUNCTION osal_memcpy,0202H
        ARGFRAME ISTACK, 0, STACK
        ARGFRAME PSTACK, 0, STACK
        ARGFRAME XSTACK, 64, STACK
        ARGFRAME IOVERLAY, 0, STATIC
        ARGFRAME DOVERLAY, 0, STATIC
        EXTERN aps_AddGroup
        FUNCTION aps_AddGroup,0202H
        ARGFRAME ISTACK, 0, STACK
        ARGFRAME PSTACK, 0, STACK
        ARGFRAME XSTACK, 40, STACK
        ARGFRAME IOVERLAY, 0, STATIC
        ARGFRAME DOVERLAY, 0, STATIC
        EXTERN HalUARTOpen
        FUNCTION HalUARTOpen,0202H
        ARGFRAME ISTACK, 0, STACK
        ARGFRAME PSTACK, 0, STACK
        ARGFRAME XSTACK, 40, STACK
        ARGFRAME IOVERLAY, 0, STATIC
        ARGFRAME DOVERLAY, 0, STATIC
        EXTERN osal_msg_receive
        FUNCTION osal_msg_receive,0202H
        ARGFRAME ISTACK, 0, STACK
        ARGFRAME PSTACK, 0, STACK
        ARGFRAME XSTACK, 27, STACK
        ARGFRAME IOVERLAY, 0, STATIC
        ARGFRAME DOVERLAY, 0, STATIC
        EXTERN osal_start_timerEx
        FUNCTION osal_start_timerEx,0202H
        ARGFRAME ISTACK, 0, STACK
        ARGFRAME PSTACK, 0, STACK
        ARGFRAME XSTACK, 27, STACK
        ARGFRAME IOVERLAY, 0, STATIC
        ARGFRAME DOVERLAY, 0, STATIC
        EXTERN osal_msg_deallocate
        FUNCTION osal_msg_deallocate,0202H
        ARGFRAME ISTACK, 0, STACK
        ARGFRAME PSTACK, 0, STACK
        ARGFRAME XSTACK, 27, STACK
        ARGFRAME IOVERLAY, 0, STATIC
        ARGFRAME DOVERLAY, 0, STATIC
        EXTERN osal_strlen
        FUNCTION osal_strlen,0202H
        ARGFRAME ISTACK, 0, STACK
        ARGFRAME PSTACK, 0, STACK
        ARGFRAME XSTACK, 32, STACK
        ARGFRAME IOVERLAY, 0, STATIC
        ARGFRAME DOVERLAY, 0, STATIC
        EXTERN AF_DataRequest
        FUNCTION AF_DataRequest,0202H
        ARGFRAME ISTACK, 0, STACK
        ARGFRAME PSTACK, 0, STACK
        ARGFRAME XSTACK, 36, STACK
        ARGFRAME IOVERLAY, 0, STATIC
        ARGFRAME DOVERLAY, 0, STATIC
        EXTERN HalLedSet
        FUNCTION HalLedSet,0202H
        ARGFRAME ISTACK, 0, STACK
        ARGFRAME PSTACK, 0, STACK
        ARGFRAME XSTACK, 27, STACK
        ARGFRAME IOVERLAY, 0, STATIC
        ARGFRAME DOVERLAY, 0, STATIC
        EXTERN HalUARTWrite
        FUNCTION HalUARTWrite,0202H
        ARGFRAME ISTACK, 0, STACK
        ARGFRAME PSTACK, 0, STACK
        ARGFRAME XSTACK, 61, STACK
        ARGFRAME IOVERLAY, 0, STATIC
        ARGFRAME DOVERLAY, 0, STATIC
        EXTERN ??AF_DataRequest?relay
        FUNCTION ??AF_DataRequest?relay,00H
        EXTERN ??HalLedSet?relay
        FUNCTION ??HalLedSet?relay,00H
        EXTERN ??HalUARTOpen?relay
        FUNCTION ??HalUARTOpen?relay,00H
        EXTERN ??HalUARTWrite?relay
        FUNCTION ??HalUARTWrite?relay,00H
        EXTERN ??afRegister?relay
        FUNCTION ??afRegister?relay,00H
        EXTERN ??aps_AddGroup?relay
        FUNCTION ??aps_AddGroup?relay,00H
        EXTERN ??osal_memcpy?relay
        FUNCTION ??osal_memcpy?relay,00H
        EXTERN ??osal_msg_deallocate?relay
        FUNCTION ??osal_msg_deallocate?relay,00H
        EXTERN ??osal_msg_receive?relay
        FUNCTION ??osal_msg_receive?relay,00H
        EXTERN ??osal_start_timerEx?relay
        FUNCTION ??osal_start_timerEx?relay,00H
        EXTERN ??osal_strlen?relay
        FUNCTION ??osal_strlen?relay,00H

// D:\Texas Instruments\ZStack-CC2530-2.5.1a\Projects\zstack\Samples\GenericApp-Group-Test\Source\Coordinator.c
//    1 
//    2 /*********************************************************************
//    3  * INCLUDES
//    4  */
//    5 #include "OSAL.h"
//    6 #include "AF.h"
//    7 #include "ZDApp.h"
//    8 #include "ZDObject.h"
//    9 #include "ZDProfile.h"
//   10 #include "aps_groups.h"
//   11 
//   12 #include "Coordinator.h"
//   13 #include "DebugTrace.h"
//   14 
//   15 #if !defined( WIN32 )
//   16   #include "OnBoard.h"
//   17 #endif
//   18 
//   19 /* HAL */
//   20 #include "hal_lcd.h"
//   21 #include "hal_led.h"
//   22 #include "hal_key.h"
//   23 #include "hal_uart.h"
//   24 
//   25 
//   26 #define TEST_SEND_DATA  0x1
//   27 
//   28 /*********************************************************************
//   29  * GLOBAL VARIABLES
//   30  */
//   31 // 群集列表

        RSEG XDATA_ROM_C:CONST:REORDER:NOROOT(0)
        DATA16
//   32 const cId_t GenericApp_ClusterList[GENERICAPP_MAX_CLUSTERS] =
GenericApp_ClusterList:
        DW 1
//   33 {
//   34   GENERICAPP_CLUSTERID
//   35 };
//   36 
//   37 // 简单描述符：描述端点

        RSEG XDATA_ROM_C:CONST:REORDER:NOROOT(0)
        DATA8
//   38 const SimpleDescriptionFormat_t GenericApp_SimpleDesc =
GenericApp_SimpleDesc:
        DB 10
        DATA16
        DW 3844
        DW 1
        DATA8
        DB 0
        DB 1
        DATA16
        DW GenericApp_ClusterList
        DATA8
        DB 0
        DATA16
        DW 0H
//   39 {
//   40   GENERICAPP_ENDPOINT,              //  int Endpoint;
//   41   GENERICAPP_PROFID,                //  uint16 AppProfId[2];
//   42   GENERICAPP_DEVICEID,              //  uint16 AppDeviceId[2];
//   43   GENERICAPP_DEVICE_VERSION,        //  int   AppDevVer:4;
//   44   GENERICAPP_FLAGS,                 //  int   AppFlags:4;
//   45   GENERICAPP_MAX_CLUSTERS,          //  byte  AppNumInClusters;
//   46   (cId_t *)GenericApp_ClusterList,  //  byte *pAppInClusterList;
//   47   0,          //  byte  AppNumInClusters;
//   48   (cId_t *)NULL   //  byte *pAppInClusterList;
//   49 };
//   50 
//   51 // 端点描述符

        RSEG XDATA_Z:XDATA:NOROOT(0)
        DATA8
//   52 endPointDesc_t GenericApp_epDesc;
GenericApp_epDesc:
        DS 6
        REQUIRE __INIT_XDATA_Z
//   53 
//   54 
//   55 /*********************************************************************
//   56  * LOCAL VARIABLES
//   57  */
//   58 // 任务ID，优先级

        RSEG XDATA_Z:XDATA:NOROOT(0)
        DATA8
//   59 byte GenericApp_TaskID; 
GenericApp_TaskID:
        DS 1
        REQUIRE __INIT_XDATA_Z
//   60 
//   61 // 发送数据序号

        RSEG XDATA_Z:XDATA:NOROOT(0)
        DATA8
//   62 byte GenericApp_TransID;  // This is the unique message ID (counter)
GenericApp_TransID:
        DS 1
        REQUIRE __INIT_XDATA_Z
//   63 
//   64 // 定义组

        RSEG XDATA_Z:XDATA:NOROOT(0)
        DATA8
//   65 aps_Group_t GenericApp_Group;
GenericApp_Group:
        DS 18
        REQUIRE __INIT_XDATA_Z
//   66 
//   67 // 设备状态

        RSEG XDATA_Z:XDATA:NOROOT(0)
        DATA8
//   68 devStates_t GenericApp_NwkState;
GenericApp_NwkState:
        DS 1
        REQUIRE __INIT_XDATA_Z
//   69 /*********************************************************************
//   70  * LOCAL FUNCTIONS
//   71  */
//   72 
//   73 // 接收到消息后，进行消息处理
//   74 static void GenericApp_MessageMSGCB( afIncomingMSGPacket_t *pckt );
//   75 static void GenericApp_SendTheMessage( void );
//   76 
//   77 /*********************************************************************
//   78  * @fn      GenericApp_Init
//   79  *
//   80  * @brief   Initialization function for the Generic App Task.
//   81  *          This is called during initialization and should contain
//   82  *          any application specific initialization (ie. hardware
//   83  *          initialization/setup, table initialization, power up
//   84  *          notificaiton ... ).
//   85  *
//   86  * @param   task_id - the ID assigned by OSAL.  This ID should be
//   87  *                    used to send messages and set timers.
//   88  *
//   89  * @return  none
//   90  */

        RSEG BANKED_CODE:CODE:NOROOT(0)
//   91 void GenericApp_Init( uint8 task_id )
GenericApp_Init:
        CFI Block cfiBlock0 Using cfiCommon0
        CFI Function GenericApp_Init
        CODE
//   92 {
        FUNCALL GenericApp_Init, afRegister
        LOCFRAME ISTACK, 0, STACK
        LOCFRAME PSTACK, 0, STACK
        LOCFRAME XSTACK, 40, STACK
        LOCFRAME IOVERLAY, 0, STATIC
        LOCFRAME DOVERLAY, 0, STATIC
        ARGFRAME ISTACK, 0, STACK
        ARGFRAME PSTACK, 0, STACK
        ARGFRAME XSTACK, 40, STACK
        ARGFRAME IOVERLAY, 0, STATIC
        ARGFRAME DOVERLAY, 0, STATIC
        FUNCALL GenericApp_Init, osal_memcpy
        LOCFRAME ISTACK, 0, STACK
        LOCFRAME PSTACK, 0, STACK
        LOCFRAME XSTACK, 43, STACK
        LOCFRAME IOVERLAY, 0, STATIC
        LOCFRAME DOVERLAY, 0, STATIC
        ARGFRAME ISTACK, 0, STACK
        ARGFRAME PSTACK, 0, STACK
        ARGFRAME XSTACK, 43, STACK
        ARGFRAME IOVERLAY, 0, STATIC
        ARGFRAME DOVERLAY, 0, STATIC
        FUNCALL GenericApp_Init, aps_AddGroup
        LOCFRAME ISTACK, 0, STACK
        LOCFRAME PSTACK, 0, STACK
        LOCFRAME XSTACK, 40, STACK
        LOCFRAME IOVERLAY, 0, STATIC
        LOCFRAME DOVERLAY, 0, STATIC
        ARGFRAME ISTACK, 0, STACK
        ARGFRAME PSTACK, 0, STACK
        ARGFRAME XSTACK, 40, STACK
        ARGFRAME IOVERLAY, 0, STATIC
        ARGFRAME DOVERLAY, 0, STATIC
        FUNCALL GenericApp_Init, HalUARTOpen
        LOCFRAME ISTACK, 0, STACK
        LOCFRAME PSTACK, 0, STACK
        LOCFRAME XSTACK, 40, STACK
        LOCFRAME IOVERLAY, 0, STATIC
        LOCFRAME DOVERLAY, 0, STATIC
        ARGFRAME ISTACK, 0, STACK
        ARGFRAME PSTACK, 0, STACK
        ARGFRAME XSTACK, 40, STACK
        ARGFRAME IOVERLAY, 0, STATIC
        ARGFRAME DOVERLAY, 0, STATIC
        MOV     A,#-0xb
        LCALL   ?BANKED_ENTER_XDATA
        CFI DPH0 load(1, XDATA, add(CFA_XSP16, literal(-1)))
        CFI DPL0 load(1, XDATA, add(CFA_XSP16, literal(-2)))
        CFI ?BRET_EXT load(1, XDATA, add(CFA_XSP16, literal(-3)))
        CFI ?RET_HIGH load(1, XDATA, add(CFA_XSP16, literal(-4)))
        CFI ?RET_LOW load(1, XDATA, add(CFA_XSP16, literal(-5)))
        CFI R7 load(1, XDATA, add(CFA_XSP16, literal(-6)))
        CFI V2 load(1, XDATA, add(CFA_XSP16, literal(-7)))
        CFI V1 load(1, XDATA, add(CFA_XSP16, literal(-8)))
        CFI V0 load(1, XDATA, add(CFA_XSP16, literal(-9)))
        CFI VB load(1, XDATA, add(CFA_XSP16, literal(-10)))
        CFI R6 load(1, XDATA, add(CFA_XSP16, literal(-11)))
        CFI CFA_SP SP+0
        CFI CFA_XSP16 add(XSP16, 11)
        ; Saved register size: 11
        ; Auto size: 29
        MOV     A,#-0x1d
        LCALL   ?ALLOC_XSTACK8
        CFI CFA_XSP16 add(XSP16, 40)
        MOV     A,R1
//   93   halUARTCfg_t uartConfig;   
//   94   
//   95   GenericApp_TaskID = task_id;
        MOV     DPTR,#GenericApp_TaskID
        MOVX    @DPTR,A
//   96  
//   97   GenericApp_TransID = 0;
        MOV     DPTR,#GenericApp_TransID
        CLR     A
        MOVX    @DPTR,A
//   98 
//   99   // Fill out the endpoint description.
//  100   GenericApp_epDesc.endPoint = GENERICAPP_ENDPOINT;
        MOV     DPTR,#GenericApp_epDesc
        MOV     A,#0xa
        MOVX    @DPTR,A
//  101   GenericApp_epDesc.task_id = &GenericApp_TaskID;
        INC     DPTR
        MOV     A,#GenericApp_TaskID & 0xff
        MOVX    @DPTR,A
        INC     DPTR
        MOV     A,#(GenericApp_TaskID >> 8) & 0xff
        MOVX    @DPTR,A
//  102   GenericApp_epDesc.simpleDesc
//  103             = (SimpleDescriptionFormat_t *)&GenericApp_SimpleDesc;
        INC     DPTR
        MOV     A,#GenericApp_SimpleDesc & 0xff
        MOVX    @DPTR,A
        INC     DPTR
        MOV     A,#(GenericApp_SimpleDesc >> 8) & 0xff
        MOVX    @DPTR,A
//  104   GenericApp_epDesc.latencyReq = noLatencyReqs;
        INC     DPTR
        CLR     A
        MOVX    @DPTR,A
//  105 
//  106   // Register the endpoint description with the AF
//  107   afRegister( &GenericApp_epDesc );  //　没有注册不能使用OSAL提供的服务
        ; Setup parameters for call to function afRegister
        MOV     R2,#GenericApp_epDesc & 0xff
        MOV     R3,#(GenericApp_epDesc >> 8) & 0xff
        LCALL   ??afRegister?relay
//  108   
//  109   // 定义一个组，并初始化
//  110   GenericApp_Group.ID = 0x0001;
        MOV     DPTR,#GenericApp_Group
        MOV     A,#0x1
        MOVX    @DPTR,A
        INC     DPTR
        CLR     A
        MOVX    @DPTR,A
//  111   GenericApp_Group.name[0] = 6;
        INC     DPTR
        MOV     A,#0x6
        MOVX    @DPTR,A
//  112   osal_memcpy(&(GenericApp_Group.name[1]), "neusof", 6);
        ; Setup parameters for call to function osal_memcpy
        MOV     ?V0 + 0,#`?<Constant "neusof">` & 0xff
        MOV     ?V0 + 1,#(`?<Constant "neusof">` >> 8) & 0xff
        MOV     ?V0 + 2,#0x0
        MOV     R0,#?V0 + 0
        LCALL   ?PUSH_XSTACK_I_THREE
        CFI CFA_XSP16 add(XSP16, 43)
        MOV     R4,#0x6
        MOV     R5,#0x0
        MOV     R2,#(GenericApp_Group + 3) & 0xff
        MOV     R3,#((GenericApp_Group + 3) >> 8) & 0xff
        LCALL   ??osal_memcpy?relay
        MOV     A,#0x3
        LCALL   ?DEALLOC_XSTACK8
        CFI CFA_XSP16 add(XSP16, 40)
//  113   aps_AddGroup( GENERICAPP_ENDPOINT, &GenericApp_Group );
        ; Setup parameters for call to function aps_AddGroup
        MOV     R2,#GenericApp_Group & 0xff
        MOV     R3,#(GenericApp_Group >> 8) & 0xff
        MOV     R1,#0xa
        LCALL   ??aps_AddGroup?relay
//  114   // 窗口配置
//  115   uartConfig.configured = true;
        MOV     DPL,?XSP + 0
        MOV     DPH,?XSP + 1
        MOV     A,#0x1
        MOVX    @DPTR,A
//  116   uartConfig.baudRate = HAL_UART_BR_115200;
        LCALL   ?XSTACK_DISP0_8
        MOV     A,#0x4
        MOVX    @DPTR,A
//  117   uartConfig.flowControl = false;
        MOV     A,#0x2
        LCALL   ?XSTACK_DISP0_8
        CLR     A
        MOVX    @DPTR,A
//  118   uartConfig.callBackFunc = NULL;
        MOV     A,#0x1b
        LCALL   ?XSTACK_DISP0_8
        CLR     A
        MOVX    @DPTR,A
        INC     DPTR
        MOVX    @DPTR,A
//  119   
//  120   HalUARTOpen ( 0, &uartConfig );
        ; Setup parameters for call to function HalUARTOpen
        MOV     DPL,?XSP + 0
        MOV     DPH,?XSP + 1
        MOV     R2,DPL
        MOV     R3,DPH
        MOV     R1,A
        LCALL   ??HalUARTOpen?relay
//  121 }
        MOV     A,#0x1d
        CFI EndBlock cfiBlock0
        REQUIRE ?Subroutine0
        ; // Fall through to label ?Subroutine0

        RSEG BANKED_CODE:CODE:NOROOT(0)
?Subroutine0:
        CFI Block cfiBlock1 Using cfiCommon0
        CFI NoFunction
        CFI CFA_SP SP+0
        CFI CFA_XSP16 add(XSP16, 40)
        CFI VB load(1, XDATA, add(CFA_XSP16, literal(-10)))
        CFI DPL0 load(1, XDATA, add(CFA_XSP16, literal(-2)))
        CFI DPH0 load(1, XDATA, add(CFA_XSP16, literal(-1)))
        CFI R6 load(1, XDATA, add(CFA_XSP16, literal(-11)))
        CFI R7 load(1, XDATA, add(CFA_XSP16, literal(-6)))
        CFI V0 load(1, XDATA, add(CFA_XSP16, literal(-9)))
        CFI V1 load(1, XDATA, add(CFA_XSP16, literal(-8)))
        CFI V2 load(1, XDATA, add(CFA_XSP16, literal(-7)))
        CFI ?BRET_EXT load(1, XDATA, add(CFA_XSP16, literal(-3)))
        CFI ?RET_HIGH load(1, XDATA, add(CFA_XSP16, literal(-4)))
        CFI ?RET_LOW load(1, XDATA, add(CFA_XSP16, literal(-5)))
        CFI Invalid
        LCALL   ?DEALLOC_XSTACK8
        CFI CFA_XSP16 add(XSP16, 11)
        CFI Valid
        MOV     R7,#0x3
        LJMP    ?BANKED_LEAVE_XDATA
        CFI EndBlock cfiBlock1
//  122 
//  123 /*********************************************************************
//  124  * @fn      GenericApp_ProcessEvent
//  125  *
//  126  * @brief   Generic Application Task event processor.  This function
//  127  *          is called to process all events for the task.  Events
//  128  *          include timers, messages and any other user defined events.
//  129  *
//  130  * @param   task_id  - The OSAL assigned task ID.
//  131  * @param   events - events to process.  This is a bit map and can
//  132  *                   contain more than one event.
//  133  *
//  134  * @return  none
//  135  */

        RSEG BANKED_CODE:CODE:NOROOT(0)
//  136 uint16 GenericApp_ProcessEvent( uint8 task_id, uint16 events )
GenericApp_ProcessEvent:
        CFI Block cfiBlock2 Using cfiCommon0
        CFI Function GenericApp_ProcessEvent
        CODE
//  137 {
        FUNCALL GenericApp_ProcessEvent, osal_msg_receive
        LOCFRAME ISTACK, 0, STACK
        LOCFRAME PSTACK, 0, STACK
        LOCFRAME XSTACK, 27, STACK
        LOCFRAME IOVERLAY, 0, STATIC
        LOCFRAME DOVERLAY, 0, STATIC
        ARGFRAME ISTACK, 0, STACK
        ARGFRAME PSTACK, 0, STACK
        ARGFRAME XSTACK, 27, STACK
        ARGFRAME IOVERLAY, 0, STATIC
        ARGFRAME DOVERLAY, 0, STATIC
        FUNCALL GenericApp_ProcessEvent, osal_start_timerEx
        LOCFRAME ISTACK, 0, STACK
        LOCFRAME PSTACK, 0, STACK
        LOCFRAME XSTACK, 27, STACK
        LOCFRAME IOVERLAY, 0, STATIC
        LOCFRAME DOVERLAY, 0, STATIC
        ARGFRAME ISTACK, 0, STACK
        ARGFRAME PSTACK, 0, STACK
        ARGFRAME XSTACK, 27, STACK
        ARGFRAME IOVERLAY, 0, STATIC
        ARGFRAME DOVERLAY, 0, STATIC
        FUNCALL GenericApp_ProcessEvent, osal_msg_deallocate
        LOCFRAME ISTACK, 0, STACK
        LOCFRAME PSTACK, 0, STACK
        LOCFRAME XSTACK, 27, STACK
        LOCFRAME IOVERLAY, 0, STATIC
        LOCFRAME DOVERLAY, 0, STATIC
        ARGFRAME ISTACK, 0, STACK
        ARGFRAME PSTACK, 0, STACK
        ARGFRAME XSTACK, 27, STACK
        ARGFRAME IOVERLAY, 0, STATIC
        ARGFRAME DOVERLAY, 0, STATIC
        FUNCALL GenericApp_ProcessEvent, osal_msg_receive
        LOCFRAME ISTACK, 0, STACK
        LOCFRAME PSTACK, 0, STACK
        LOCFRAME XSTACK, 27, STACK
        LOCFRAME IOVERLAY, 0, STATIC
        LOCFRAME DOVERLAY, 0, STATIC
        ARGFRAME ISTACK, 0, STACK
        ARGFRAME PSTACK, 0, STACK
        ARGFRAME XSTACK, 27, STACK
        ARGFRAME IOVERLAY, 0, STATIC
        ARGFRAME DOVERLAY, 0, STATIC
        FUNCALL GenericApp_ProcessEvent, GenericApp_MessageMSGCB
        LOCFRAME ISTACK, 0, STACK
        LOCFRAME PSTACK, 0, STACK
        LOCFRAME XSTACK, 27, STACK
        LOCFRAME IOVERLAY, 0, STATIC
        LOCFRAME DOVERLAY, 0, STATIC
        ARGFRAME ISTACK, 0, STACK
        ARGFRAME PSTACK, 0, STACK
        ARGFRAME XSTACK, 27, STACK
        ARGFRAME IOVERLAY, 0, STATIC
        ARGFRAME DOVERLAY, 0, STATIC
        FUNCALL GenericApp_ProcessEvent, osal_strlen
        LOCFRAME ISTACK, 0, STACK
        LOCFRAME PSTACK, 0, STACK
        LOCFRAME XSTACK, 32, STACK
        LOCFRAME IOVERLAY, 0, STATIC
        LOCFRAME DOVERLAY, 0, STATIC
        ARGFRAME ISTACK, 0, STACK
        ARGFRAME PSTACK, 0, STACK
        ARGFRAME XSTACK, 32, STACK
        ARGFRAME IOVERLAY, 0, STATIC
        ARGFRAME DOVERLAY, 0, STATIC
        FUNCALL GenericApp_ProcessEvent, AF_DataRequest
        LOCFRAME ISTACK, 0, STACK
        LOCFRAME PSTACK, 0, STACK
        LOCFRAME XSTACK, 36, STACK
        LOCFRAME IOVERLAY, 0, STATIC
        LOCFRAME DOVERLAY, 0, STATIC
        ARGFRAME ISTACK, 0, STACK
        ARGFRAME PSTACK, 0, STACK
        ARGFRAME XSTACK, 36, STACK
        ARGFRAME IOVERLAY, 0, STATIC
        ARGFRAME DOVERLAY, 0, STATIC
        FUNCALL GenericApp_ProcessEvent, HalLedSet
        LOCFRAME ISTACK, 0, STACK
        LOCFRAME PSTACK, 0, STACK
        LOCFRAME XSTACK, 27, STACK
        LOCFRAME IOVERLAY, 0, STATIC
        LOCFRAME DOVERLAY, 0, STATIC
        ARGFRAME ISTACK, 0, STACK
        ARGFRAME PSTACK, 0, STACK
        ARGFRAME XSTACK, 27, STACK
        ARGFRAME IOVERLAY, 0, STATIC
        ARGFRAME DOVERLAY, 0, STATIC
        FUNCALL GenericApp_ProcessEvent, HalLedSet
        LOCFRAME ISTACK, 0, STACK
        LOCFRAME PSTACK, 0, STACK
        LOCFRAME XSTACK, 27, STACK
        LOCFRAME IOVERLAY, 0, STATIC
        LOCFRAME DOVERLAY, 0, STATIC
        ARGFRAME ISTACK, 0, STACK
        ARGFRAME PSTACK, 0, STACK
        ARGFRAME XSTACK, 27, STACK
        ARGFRAME IOVERLAY, 0, STATIC
        ARGFRAME DOVERLAY, 0, STATIC
        FUNCALL GenericApp_ProcessEvent, osal_start_timerEx
        LOCFRAME ISTACK, 0, STACK
        LOCFRAME PSTACK, 0, STACK
        LOCFRAME XSTACK, 27, STACK
        LOCFRAME IOVERLAY, 0, STATIC
        LOCFRAME DOVERLAY, 0, STATIC
        ARGFRAME ISTACK, 0, STACK
        ARGFRAME PSTACK, 0, STACK
        ARGFRAME XSTACK, 27, STACK
        ARGFRAME IOVERLAY, 0, STATIC
        ARGFRAME DOVERLAY, 0, STATIC
        MOV     A,#-0xc
        LCALL   ?BANKED_ENTER_XDATA
        CFI DPH0 load(1, XDATA, add(CFA_XSP16, literal(-1)))
        CFI DPL0 load(1, XDATA, add(CFA_XSP16, literal(-2)))
        CFI ?BRET_EXT load(1, XDATA, add(CFA_XSP16, literal(-3)))
        CFI ?RET_HIGH load(1, XDATA, add(CFA_XSP16, literal(-4)))
        CFI ?RET_LOW load(1, XDATA, add(CFA_XSP16, literal(-5)))
        CFI R7 load(1, XDATA, add(CFA_XSP16, literal(-6)))
        CFI V3 load(1, XDATA, add(CFA_XSP16, literal(-7)))
        CFI V2 load(1, XDATA, add(CFA_XSP16, literal(-8)))
        CFI V1 load(1, XDATA, add(CFA_XSP16, literal(-9)))
        CFI V0 load(1, XDATA, add(CFA_XSP16, literal(-10)))
        CFI VB load(1, XDATA, add(CFA_XSP16, literal(-11)))
        CFI R6 load(1, XDATA, add(CFA_XSP16, literal(-12)))
        CFI CFA_SP SP+0
        CFI CFA_XSP16 add(XSP16, 12)
        ; Saved register size: 12
        ; Auto size: 15
        MOV     A,#-0xf
        LCALL   ?ALLOC_XSTACK8
        CFI CFA_XSP16 add(XSP16, 27)
        MOV     A,R2
        MOV     R6,A
        MOV     A,R3
        MOV     R7,A
//  138   afIncomingMSGPacket_t *MSGpkt;  // 消息包指针
//  139   
//  140   if ( events & SYS_EVENT_MSG )   // 判断是否是系统事件
        ANL     A,#0x80
        JZ      ??GenericApp_ProcessEvent_0
//  141   {
//  142     MSGpkt = (afIncomingMSGPacket_t *)osal_msg_receive( GenericApp_TaskID );
        ; Setup parameters for call to function osal_msg_receive
        SJMP    ??GenericApp_ProcessEvent_1
//  143     while ( MSGpkt )
//  144     {
//  145       switch ( MSGpkt->hdr.event )
//  146       {        
//  147         case AF_INCOMING_MSG_CMD:   // 接收到无线数据事件
//  148           GenericApp_MessageMSGCB( MSGpkt );  // 消息处理函数
//  149           break;
//  150         case ZDO_STATE_CHANGE:
//  151           GenericApp_NwkState = (devStates_t)(MSGpkt->hdr.status);
??GenericApp_ProcessEvent_2:
        INC     DPTR
        MOVX    A,@DPTR
        MOV     DPTR,#GenericApp_NwkState
        MOVX    @DPTR,A
//  152           if (GenericApp_NwkState == DEV_ZB_COORD)
        XRL     A,#0x9
        JNZ     ??GenericApp_ProcessEvent_3
//  153           {             
//  154             //aps_AddGroup( GENERICAPP_ENDPOINT, &GenericApp_Group );
//  155             osal_start_timerEx(GenericApp_TaskID, TEST_SEND_DATA, 5000);
        ; Setup parameters for call to function osal_start_timerEx
        MOV     R4,#-0x78
        MOV     R5,#0x13
        MOV     R2,#0x1
        MOV     R3,#0x0
        MOV     DPTR,#GenericApp_TaskID
        MOVX    A,@DPTR
        MOV     R1,A
        LCALL   ??osal_start_timerEx?relay
//  156           }
//  157           break;
//  158         default:
//  159           break;
//  160       }
//  161 
//  162       // Release the memory
//  163       osal_msg_deallocate( (uint8 *)MSGpkt );  // 释放消息空间，防止内存泄漏
??GenericApp_ProcessEvent_3:
        ; Setup parameters for call to function osal_msg_deallocate
        MOV     R2,?V0 + 0
        MOV     R3,?V0 + 1
        LCALL   ??osal_msg_deallocate?relay
//  164 
//  165       // Next
//  166       MSGpkt = (afIncomingMSGPacket_t *)osal_msg_receive( GenericApp_TaskID );
        ; Setup parameters for call to function osal_msg_receive
??GenericApp_ProcessEvent_1:
        MOV     DPTR,#GenericApp_TaskID
        MOVX    A,@DPTR
        MOV     R1,A
        LCALL   ??osal_msg_receive?relay
        MOV     ?V0 + 0,R2
        MOV     ?V0 + 1,R3
        MOV     A,?V0 + 0
        ORL     A,?V0 + 1
        JZ      ??GenericApp_ProcessEvent_4
        MOV     DPL,?V0 + 0
        MOV     DPH,?V0 + 1
        MOVX    A,@DPTR
        ADD     A,#-0x1a
        JZ      ??GenericApp_ProcessEvent_5
        ADD     A,#0x49
        JZ      ??GenericApp_ProcessEvent_2
        SJMP    ??GenericApp_ProcessEvent_3
??GenericApp_ProcessEvent_5:
        ; Setup parameters for call to function GenericApp_MessageMSGCB
        MOV     R2,?V0 + 0
        MOV     R3,?V0 + 1
        LCALL   ??GenericApp_MessageMSGCB?relay
        SJMP    ??GenericApp_ProcessEvent_3
//  167     }
//  168 
//  169     // return unprocessed events
//  170     return (events ^ SYS_EVENT_MSG);   // 返回其他未处理的消息
??GenericApp_ProcessEvent_4:
        MOV     A,R6
        MOV     R2,A
        MOV     A,R7
        XRL     A,#0x80
        MOV     R3,A
        LJMP    ??GenericApp_ProcessEvent_6 & 0xFFFF
//  171   }
//  172   
//  173   if (events & TEST_SEND_DATA)
??GenericApp_ProcessEvent_0:
        MOV     A,R6
        MOV     C,0xE0 /* A   */.0
        JC      $+5
        LJMP    ??GenericApp_ProcessEvent_7 & 0xFFFF
//  174   {
//  175     GenericApp_SendTheMessage();
        MOV     DPL,?XSP + 0
        MOV     DPH,?XSP + 1
        MOV     R4,DPL
        MOV     R5,DPH
        MOV     DPH,#(`?<Constant "D1">` >> 8) & 0xff
        MOV     DPL,#`?<Constant "D1">` & 0xff
        MOV     A,#0x3
        LCALL   ?MOVE_LONG8_XDATA_XDATA
        MOV     DPTR,#GenericApp_Group
        MOVX    A,@DPTR
        MOV     R0,A
        INC     DPTR
        MOVX    A,@DPTR
        MOV     R1,A
        MOV     A,#0x3
        LCALL   ?XSTACK_DISP0_8
        MOV     A,R0
        MOVX    @DPTR,A
        INC     DPTR
        MOV     A,R1
        MOVX    @DPTR,A
        MOV     A,#0xb
        LCALL   ?XSTACK_DISP0_8
        MOV     A,#0x1
        MOVX    @DPTR,A
        MOV     A,#0xc
        LCALL   ?XSTACK_DISP0_8
        MOV     A,#0xa
        MOVX    @DPTR,A
        ; Setup parameters for call to function AF_DataRequest
        MOV     ?V0 + 0,#0x1e
        MOV     R0,#?V0 + 0
        LCALL   ?PUSH_XSTACK_I_ONE
        CFI CFA_XSP16 add(XSP16, 28)
        MOV     ?V0 + 0,#GenericApp_TransID & 0xff
        MOV     ?V0 + 1,#(GenericApp_TransID >> 8) & 0xff
        MOV     R0,#?V0 + 0
        LCALL   ?PUSH_XSTACK_I_TWO
        CFI CFA_XSP16 add(XSP16, 30)
        MOV     A,#0x3
        LCALL   ?XSTACK_DISP0_8
        MOV     ?V0 + 0,DPL
        MOV     ?V0 + 1,DPH
        MOV     R0,#?V0 + 0
        LCALL   ?PUSH_XSTACK_I_TWO
        CFI CFA_XSP16 add(XSP16, 32)
        ; Setup parameters for call to function osal_strlen
        MOV     A,#0x5
        LCALL   ?XSTACK_DISP0_8
        MOV     R2,DPL
        MOV     R3,DPH
        LCALL   ??osal_strlen?relay
        MOV     A,R2
        ADD     A,#0x1
        MOV     ?V0 + 0,A
        CLR     A
        ADDC    A,#0x0
        MOV     ?V0 + 1,A
        MOV     R0,#?V0 + 0
        LCALL   ?PUSH_XSTACK_I_TWO
        CFI CFA_XSP16 add(XSP16, 34)
        MOV     ?V0 + 0,#0x1
        MOV     ?V0 + 1,#0x0
        MOV     R0,#?V0 + 0
        LCALL   ?PUSH_XSTACK_I_TWO
        CFI CFA_XSP16 add(XSP16, 36)
        MOV     R1,#0x20
        MOV     R4,#GenericApp_epDesc & 0xff
        MOV     R5,#(GenericApp_epDesc >> 8) & 0xff
        MOV     A,#0xc
        LCALL   ?XSTACK_DISP0_8
        MOV     R2,DPL
        MOV     R3,DPH
        LCALL   ??AF_DataRequest?relay
        MOV     A,#0x9
        LCALL   ?DEALLOC_XSTACK8
        CFI CFA_XSP16 add(XSP16, 27)
        MOV     A,R1
        JNZ     ??GenericApp_ProcessEvent_8
        ; Setup parameters for call to function HalLedSet
        MOV     R2,#0x1
        SJMP    ??GenericApp_ProcessEvent_9
??GenericApp_ProcessEvent_8:
        ; Setup parameters for call to function HalLedSet
        MOV     R2,#0x0
??GenericApp_ProcessEvent_9:
        MOV     R1,#0x2
        LCALL   ??HalLedSet?relay
//  176     osal_start_timerEx(GenericApp_TaskID, TEST_SEND_DATA, 5000);
        ; Setup parameters for call to function osal_start_timerEx
        MOV     R4,#-0x78
        MOV     R5,#0x13
        MOV     R2,#0x1
        MOV     R3,#0x0
        MOV     DPTR,#GenericApp_TaskID
        MOVX    A,@DPTR
        MOV     R1,A
        LCALL   ??osal_start_timerEx?relay
//  177   }
//  178   // Discard unknown events
//  179   return 0;
??GenericApp_ProcessEvent_7:
        MOV     R2,#0x0
        MOV     R3,#0x0
??GenericApp_ProcessEvent_6:
        MOV     A,#0xf
        LCALL   ?DEALLOC_XSTACK8
        CFI CFA_XSP16 add(XSP16, 12)
        MOV     R7,#0x4
        LJMP    ?BANKED_LEAVE_XDATA
        CFI EndBlock cfiBlock2
//  180 }
//  181 
//  182 
//  183 /*********************************************************************
//  184  * LOCAL FUNCTIONS
//  185  */
//  186 
//  187 /*********************************************************************
//  188  * @fn      GenericApp_MessageMSGCB
//  189  *
//  190  * @brief   Data message processor callback.  This function processes
//  191  *          any incoming data - probably from other devices.  So, based
//  192  *          on cluster ID, perform the intended action.
//  193  *
//  194  * @param   none
//  195  *
//  196  * @return  none
//  197  */

        RSEG BANKED_CODE:CODE:NOROOT(0)
//  198 static void GenericApp_MessageMSGCB( afIncomingMSGPacket_t *pkt )
GenericApp_MessageMSGCB:
        CFI Block cfiBlock3 Using cfiCommon0
        CFI Function GenericApp_MessageMSGCB
        CODE
//  199 {
        FUNCALL GenericApp_MessageMSGCB, osal_memcpy
        LOCFRAME ISTACK, 0, STACK
        LOCFRAME PSTACK, 0, STACK
        LOCFRAME XSTACK, 64, STACK
        LOCFRAME IOVERLAY, 0, STATIC
        LOCFRAME DOVERLAY, 0, STATIC
        ARGFRAME ISTACK, 0, STACK
        ARGFRAME PSTACK, 0, STACK
        ARGFRAME XSTACK, 64, STACK
        ARGFRAME IOVERLAY, 0, STATIC
        ARGFRAME DOVERLAY, 0, STATIC
        FUNCALL GenericApp_MessageMSGCB, HalUARTWrite
        LOCFRAME ISTACK, 0, STACK
        LOCFRAME PSTACK, 0, STACK
        LOCFRAME XSTACK, 61, STACK
        LOCFRAME IOVERLAY, 0, STATIC
        LOCFRAME DOVERLAY, 0, STATIC
        ARGFRAME ISTACK, 0, STACK
        ARGFRAME PSTACK, 0, STACK
        ARGFRAME XSTACK, 61, STACK
        ARGFRAME IOVERLAY, 0, STATIC
        ARGFRAME DOVERLAY, 0, STATIC
        FUNCALL GenericApp_MessageMSGCB, HalUARTWrite
        LOCFRAME ISTACK, 0, STACK
        LOCFRAME PSTACK, 0, STACK
        LOCFRAME XSTACK, 61, STACK
        LOCFRAME IOVERLAY, 0, STATIC
        LOCFRAME DOVERLAY, 0, STATIC
        ARGFRAME ISTACK, 0, STACK
        ARGFRAME PSTACK, 0, STACK
        ARGFRAME XSTACK, 61, STACK
        ARGFRAME IOVERLAY, 0, STATIC
        ARGFRAME DOVERLAY, 0, STATIC
        MOV     A,#-0xb
        LCALL   ?BANKED_ENTER_XDATA
        CFI DPH0 load(1, XDATA, add(CFA_XSP16, literal(-1)))
        CFI DPL0 load(1, XDATA, add(CFA_XSP16, literal(-2)))
        CFI ?BRET_EXT load(1, XDATA, add(CFA_XSP16, literal(-3)))
        CFI ?RET_HIGH load(1, XDATA, add(CFA_XSP16, literal(-4)))
        CFI ?RET_LOW load(1, XDATA, add(CFA_XSP16, literal(-5)))
        CFI R7 load(1, XDATA, add(CFA_XSP16, literal(-6)))
        CFI V2 load(1, XDATA, add(CFA_XSP16, literal(-7)))
        CFI V1 load(1, XDATA, add(CFA_XSP16, literal(-8)))
        CFI V0 load(1, XDATA, add(CFA_XSP16, literal(-9)))
        CFI VB load(1, XDATA, add(CFA_XSP16, literal(-10)))
        CFI R6 load(1, XDATA, add(CFA_XSP16, literal(-11)))
        CFI CFA_SP SP+0
        CFI CFA_XSP16 add(XSP16, 11)
        ; Saved register size: 11
        ; Auto size: 50
        MOV     A,#-0x32
        LCALL   ?ALLOC_XSTACK8
        CFI CFA_XSP16 add(XSP16, 61)
//  200   uint8 buffer[50];
//  201   switch ( pkt->clusterId )
        MOV     DPL,R2
        MOV     DPH,R3
        INC     DPTR
        INC     DPTR
        INC     DPTR
        INC     DPTR
        MOVX    A,@DPTR
        XRL     A,#0x1
        JNZ     ??GenericApp_MessageMSGCB_0
        INC     DPTR
        MOVX    A,@DPTR
??GenericApp_MessageMSGCB_0:
        JNZ     ??GenericApp_MessageMSGCB_1
//  202   {
//  203     case GENERICAPP_CLUSTERID:
//  204       osal_memcpy(buffer, pkt->cmd.Data, 15);
        ; Setup parameters for call to function osal_memcpy
        MOV     A,R2
        ADD     A,#0x22
        MOV     DPL,A
        MOV     A,R3
        ADDC    A,#0x0
        MOV     DPH,A
        MOVX    A,@DPTR
        MOV     ?V0 + 0,A
        INC     DPTR
        MOVX    A,@DPTR
        MOV     ?V0 + 1,A
        MOV     ?V0 + 2,#0x0
        MOV     R0,#?V0 + 0
        LCALL   ?PUSH_XSTACK_I_THREE
        CFI CFA_XSP16 add(XSP16, 64)
        MOV     R4,#0xf
        MOV     R5,#0x0
        MOV     A,#0x3
        LCALL   ?XSTACK_DISP0_8
        MOV     R2,DPL
        MOV     R3,DPH
        LCALL   ??osal_memcpy?relay
        MOV     A,#0x3
        LCALL   ?DEALLOC_XSTACK8
        CFI CFA_XSP16 add(XSP16, 61)
//  205       HalUARTWrite ( 0, buffer, 15 );
        ; Setup parameters for call to function HalUARTWrite
        MOV     R4,#0xf
        MOV     R5,#0x0
        MOV     DPL,?XSP + 0
        MOV     DPH,?XSP + 1
        MOV     R2,DPL
        MOV     R3,DPH
        MOV     R1,#0x0
        LCALL   ??HalUARTWrite?relay
//  206       HalUARTWrite ( 0, "\r\n", 2 );
        ; Setup parameters for call to function HalUARTWrite
        MOV     R4,#0x2
        MOV     R5,#0x0
        MOV     R2,#`?<Constant "\\r\\n">` & 0xff
        MOV     R3,#(`?<Constant "\\r\\n">` >> 8) & 0xff
        MOV     R1,#0x0
        LCALL   ??HalUARTWrite?relay
//  207       break;
//  208   }
//  209 }
??GenericApp_MessageMSGCB_1:
        MOV     A,#0x32
        LJMP    ?Subroutine0 & 0xFFFF
        CFI EndBlock cfiBlock3

        RSEG BANK_RELAYS:CODE:REORDER:NOROOT(0)
??GenericApp_Init?relay:
        LCALL   ?BDISPATCH
        DATA
        DC24    GenericApp_Init

        RSEG BANK_RELAYS:CODE:REORDER:NOROOT(0)
??GenericApp_ProcessEvent?relay:
        LCALL   ?BDISPATCH
        DATA
        DC24    GenericApp_ProcessEvent

        RSEG BANK_RELAYS:CODE:REORDER:NOROOT(0)
??GenericApp_MessageMSGCB?relay:
        LCALL   ?BDISPATCH
        DATA
        DC24    GenericApp_MessageMSGCB

        RSEG XDATA_ROM_C:CONST:REORDER:NOROOT(0)
        DATA8
`?<Constant "neusof">`:
        DB "neusof"

        RSEG XDATA_ROM_C:CONST:REORDER:NOROOT(0)
        DATA8
`?<Constant "\\r\\n">`:
        DB "\015\012"

        RSEG XDATA_ROM_C:CONST:REORDER:NOROOT(0)
        DATA8
`?<Constant "D1">`:
        DB "D1"

        END
//  210 
//  211 
//  212 static void GenericApp_SendTheMessage( void )
//  213 {
//  214   char theMessageData[] = "D1";
//  215   
//  216   // 目的地址
//  217   afAddrType_t GenericApp_DstAddr;
//  218   
//  219   GenericApp_DstAddr.addr.shortAddr = GenericApp_Group.ID;    // 短地址设置为组ID
//  220   GenericApp_DstAddr.addrMode = afAddrGroup;   // 组播
//  221   GenericApp_DstAddr.endPoint = GENERICAPP_ENDPOINT;  // 接收端的端点号
//  222   
//  223   if ( AF_DataRequest( &GenericApp_DstAddr, &GenericApp_epDesc,
//  224                        GENERICAPP_CLUSTERID,
//  225                        (byte)osal_strlen( theMessageData ) + 1,
//  226                        (byte *)theMessageData,
//  227                        &GenericApp_TransID,
//  228                        AF_DISCV_ROUTE, AF_DEFAULT_RADIUS ) == afStatus_SUCCESS )
//  229   {
//  230     // Successfully requested to be sent.
//  231     HalLedSet( HAL_LED_2, HAL_LED_MODE_ON );  // 点灯
//  232   }
//  233   else
//  234   {
//  235     
//  236     HalLedSet( HAL_LED_2, HAL_LED_MODE_OFF );   // 关灯
//  237     // Error occurred in request to send.
//  238   }
//  239 }
// 
// 578 bytes in segment BANKED_CODE
//  18 bytes in segment BANK_RELAYS
//  27 bytes in segment XDATA_ROM_C
//  27 bytes in segment XDATA_Z
// 
// 596 bytes of CODE  memory
//  27 bytes of CONST memory
//  27 bytes of XDATA memory
//
//Errors: none
//Warnings: none
