###############################################################################
#                                                                             #
# IAR C/C++ Compiler V8.10.3.10338/W32 for 8051         24/Mar/2017  15:52:40 #
# Copyright 2004-2011 IAR Systems AB.                                         #
#                                                                             #
#    Core               =  plain                                              #
#    Code model         =  banked                                             #
#    Data model         =  large                                              #
#    Calling convention =  xdata reentrant                                    #
#    Constant location  =  data_rom                                           #
#    Dptr setup         =  1,16                                               #
#    Source file        =  D:\Texas Instruments\ZStack-CC2530-2.5.1a\Projects #
#                          \zstack\Samples\GenericApp-Group-Test\Source\EndDe #
#                          vice.c                                             #
#    Command line       =  -f "D:\Texas Instruments\ZStack-CC2530-2.5.1a\Proj #
#                          ects\zstack\Samples\GenericApp-Group-Test\CC2530DB #
#                          \..\..\..\Tools\CC2530DB\f8wRouter.cfg"            #
#                          (-DCPU32MHZ -DROOT=__near_func                     #
#                          -DMAC_CFG_APP_PENDING_QUEUE=TRUE                   #
#                          -DMAC_CFG_TX_DATA_MAX=5 -DMAC_CFG_TX_MAX=8         #
#                          -DMAC_CFG_RX_MAX=5 -DRTR_NWK) -f "D:\Texas         #
#                          Instruments\ZStack-CC2530-2.5.1a\Projects\zstack\S #
#                          amples\GenericApp-Group-Test\CC2530DB\..\..\..\Too #
#                          ls\CC2530DB\f8wConfig.cfg" (-DZIGBEEPRO            #
#                          -DSECURE=0 -DZG_SECURE_DYNAMIC=0 -DREFLECTOR       #
#                          -DDEFAULT_CHANLIST=0x00000800                      #
#                          -DZDAPP_CONFIG_PAN_ID=0xFFFF                       #
#                          -DNWK_START_DELAY=100 -DEXTENDED_JOINING_RANDOM_MA #
#                          SK=0x007F -DBEACON_REQUEST_DELAY=100               #
#                          -DBEACON_REQ_DELAY_MASK=0x00FF                     #
#                          -DLINK_STATUS_JITTER_MASK=0x007F                   #
#                          -DROUTE_EXPIRY_TIME=30 -DAPSC_ACK_WAIT_DURATION_PO #
#                          LLED=3000 -DNWK_INDIRECT_MSG_TIMEOUT=7             #
#                          -DMAX_RREQ_ENTRIES=8 -DAPSC_MAX_FRAME_RETRIES=3    #
#                          -DNWK_MAX_DATA_RETRIES=2                           #
#                          -DMAX_POLL_FAILURE_RETRIES=2 -DMAX_BCAST=9         #
#                          -DAPS_MAX_GROUPS=16 -DMAX_RTG_ENTRIES=40           #
#                          -DNWK_MAX_BINDING_ENTRIES=4                        #
#                          -DMAX_BINDING_CLUSTER_IDS=4 "-DDEFAULT_KEY={0x01,  #
#                          0x03, 0x05, 0x07, 0x09, 0x0B, 0x0D, 0x0F, 0x00,    #
#                          0x02, 0x04, 0x06, 0x08, 0x0A, 0x0C, 0x0D}"         #
#                          -DMAC_MAX_FRAME_SIZE=116                           #
#                          -DZDNWKMGR_MIN_TRANSMISSIONS=20 "-DCONST=const     #
#                          __code" -DGENERIC=__generic                        #
#                          -DRFD_RCVC_ALWAYS_ON=FALSE -DPOLL_RATE=1000        #
#                          -DQUEUED_POLL_RATE=100 -DRESPONSE_POLL_RATE=100)   #
#                          -DREJOIN_POLL_RATE=440 "D:\Texas                   #
#                          Instruments\ZStack-CC2530-2.5.1a\Projects\zstack\S #
#                          amples\GenericApp-Group-Test\Source\EndDevice.c"   #
#                          -D ZTOOL_P1 -D MT_TASK -D MT_SYS_FUNC -D           #
#                          MT_ZDO_FUNC -D LCD_SUPPORTED=DEBUG -lC "D:\Texas   #
#                          Instruments\ZStack-CC2530-2.5.1a\Projects\zstack\S #
#                          amples\GenericApp-Group-Test\CC2530DB\RouterEB\Lis #
#                          t\" -lA "D:\Texas Instruments\ZStack-CC2530-2.5.1a #
#                          \Projects\zstack\Samples\GenericApp-Group-Test\CC2 #
#                          530DB\RouterEB\List\" --diag_suppress Pe001,Pa010  #
#                          -o "D:\Texas Instruments\ZStack-CC2530-2.5.1a\Proj #
#                          ects\zstack\Samples\GenericApp-Group-Test\CC2530DB #
#                          \RouterEB\Obj\" -e --no_code_motion --debug        #
#                          --core=plain --dptr=16,1 --data_model=large        #
#                          --code_model=banked --calling_convention=xdata_ree #
#                          ntrant --place_constants=data_rom                  #
#                          --nr_virtual_regs 16 -I "D:\Texas                  #
#                          Instruments\ZStack-CC2530-2.5.1a\Projects\zstack\S #
#                          amples\GenericApp-Group-Test\CC2530DB\" -I         #
#                          "D:\Texas Instruments\ZStack-CC2530-2.5.1a\Project #
#                          s\zstack\Samples\GenericApp-Group-Test\CC2530DB\.. #
#                          \Source\" -I "D:\Texas Instruments\ZStack-CC2530-2 #
#                          .5.1a\Projects\zstack\Samples\GenericApp-Group-Tes #
#                          t\CC2530DB\..\..\..\ZMain\TI2530DB\" -I "D:\Texas  #
#                          Instruments\ZStack-CC2530-2.5.1a\Projects\zstack\S #
#                          amples\GenericApp-Group-Test\CC2530DB\..\..\..\..\ #
#                          ..\Components\hal\include\" -I "D:\Texas           #
#                          Instruments\ZStack-CC2530-2.5.1a\Projects\zstack\S #
#                          amples\GenericApp-Group-Test\CC2530DB\..\..\..\..\ #
#                          ..\Components\hal\target\CC2530EB\" -I "D:\Texas   #
#                          Instruments\ZStack-CC2530-2.5.1a\Projects\zstack\S #
#                          amples\GenericApp-Group-Test\CC2530DB\..\..\..\..\ #
#                          ..\Components\mac\include\" -I "D:\Texas           #
#                          Instruments\ZStack-CC2530-2.5.1a\Projects\zstack\S #
#                          amples\GenericApp-Group-Test\CC2530DB\..\..\..\..\ #
#                          ..\Components\mac\high_level\" -I "D:\Texas        #
#                          Instruments\ZStack-CC2530-2.5.1a\Projects\zstack\S #
#                          amples\GenericApp-Group-Test\CC2530DB\..\..\..\..\ #
#                          ..\Components\mac\low_level\srf04\" -I "D:\Texas   #
#                          Instruments\ZStack-CC2530-2.5.1a\Projects\zstack\S #
#                          amples\GenericApp-Group-Test\CC2530DB\..\..\..\..\ #
#                          ..\Components\mac\low_level\srf04\single_chip\"    #
#                          -I "D:\Texas Instruments\ZStack-CC2530-2.5.1a\Proj #
#                          ects\zstack\Samples\GenericApp-Group-Test\CC2530DB #
#                          \..\..\..\..\..\Components\mt\" -I "D:\Texas       #
#                          Instruments\ZStack-CC2530-2.5.1a\Projects\zstack\S #
#                          amples\GenericApp-Group-Test\CC2530DB\..\..\..\..\ #
#                          ..\Components\osal\include\" -I "D:\Texas          #
#                          Instruments\ZStack-CC2530-2.5.1a\Projects\zstack\S #
#                          amples\GenericApp-Group-Test\CC2530DB\..\..\..\..\ #
#                          ..\Components\services\saddr\" -I "D:\Texas        #
#                          Instruments\ZStack-CC2530-2.5.1a\Projects\zstack\S #
#                          amples\GenericApp-Group-Test\CC2530DB\..\..\..\..\ #
#                          ..\Components\services\sdata\" -I "D:\Texas        #
#                          Instruments\ZStack-CC2530-2.5.1a\Projects\zstack\S #
#                          amples\GenericApp-Group-Test\CC2530DB\..\..\..\..\ #
#                          ..\Components\stack\af\" -I "D:\Texas              #
#                          Instruments\ZStack-CC2530-2.5.1a\Projects\zstack\S #
#                          amples\GenericApp-Group-Test\CC2530DB\..\..\..\..\ #
#                          ..\Components\stack\nwk\" -I "D:\Texas             #
#                          Instruments\ZStack-CC2530-2.5.1a\Projects\zstack\S #
#                          amples\GenericApp-Group-Test\CC2530DB\..\..\..\..\ #
#                          ..\Components\stack\sapi\" -I "D:\Texas            #
#                          Instruments\ZStack-CC2530-2.5.1a\Projects\zstack\S #
#                          amples\GenericApp-Group-Test\CC2530DB\..\..\..\..\ #
#                          ..\Components\stack\sec\" -I "D:\Texas             #
#                          Instruments\ZStack-CC2530-2.5.1a\Projects\zstack\S #
#                          amples\GenericApp-Group-Test\CC2530DB\..\..\..\..\ #
#                          ..\Components\stack\sys\" -I "D:\Texas             #
#                          Instruments\ZStack-CC2530-2.5.1a\Projects\zstack\S #
#                          amples\GenericApp-Group-Test\CC2530DB\..\..\..\..\ #
#                          ..\Components\stack\zdo\" -I "D:\Texas             #
#                          Instruments\ZStack-CC2530-2.5.1a\Projects\zstack\S #
#                          amples\GenericApp-Group-Test\CC2530DB\..\..\..\..\ #
#                          ..\Components\zmac\" -I "D:\Texas                  #
#                          Instruments\ZStack-CC2530-2.5.1a\Projects\zstack\S #
#                          amples\GenericApp-Group-Test\CC2530DB\..\..\..\..\ #
#                          ..\Components\zmac\f8w\" -Ohz --require_prototypes #
#    List file          =  D:\Texas Instruments\ZStack-CC2530-2.5.1a\Projects #
#                          \zstack\Samples\GenericApp-Group-Test\CC2530DB\Rou #
#                          terEB\List\EndDevice.lst                           #
#    Object file        =  D:\Texas Instruments\ZStack-CC2530-2.5.1a\Projects #
#                          \zstack\Samples\GenericApp-Group-Test\CC2530DB\Rou #
#                          terEB\Obj\EndDevice.r51                            #
#                                                                             #
#                                                                             #
###############################################################################

D:\Texas Instruments\ZStack-CC2530-2.5.1a\Projects\zstack\Samples\GenericApp-Group-Test\Source\EndDevice.c
      1          
      2          /*********************************************************************
      3           * INCLUDES
      4           */
      5          #include "OSAL.h"
      6          #include "AF.h"
      7          #include "ZDApp.h"
      8          #include "ZDObject.h"
      9          #include "ZDProfile.h"
     10          
     11          #include "Coordinator.h"
     12          #include "DebugTrace.h"
     13          
     14          #include "aps_groups.h"
     15          
     16          #if !defined( WIN32 )
     17            #include "OnBoard.h"
     18          #endif
     19          
     20          /* HAL */
     21          #include "hal_lcd.h"
     22          #include "hal_led.h"
     23          #include "hal_key.h"
     24          #include "hal_uart.h"
     25          
     26          
     27          /*********************************************************************
     28           * GLOBAL VARIABLES
     29           */
     30          // 群集列表

   \                                 In  segment XDATA_ROM_C, align 1
     31          const cId_t GenericApp_ClusterList[GENERICAPP_MAX_CLUSTERS] =
   \                     GenericApp_ClusterList:
   \   000000   0100         DW 1
     32          {
     33            GENERICAPP_CLUSTERID
     34          };
     35          
     36          // 简单描述符：描述端点

   \                                 In  segment XDATA_ROM_C, align 1
     37          const SimpleDescriptionFormat_t GenericApp_SimpleDesc =
   \                     GenericApp_SimpleDesc:
   \   000000   0A           DB 10
   \   000001   040F         DW 3844
   \   000003   0100         DW 1
   \   000005   00           DB 0
   \   000006   00           DB 0
   \   000007   0000         DW 0H
   \   000009   01           DB 1
   \   00000A   ....         DW GenericApp_ClusterList
     38          {
     39            GENERICAPP_ENDPOINT,              //  int Endpoint;
     40            GENERICAPP_PROFID,                //  uint16 AppProfId[2];
     41            GENERICAPP_DEVICEID,              //  uint16 AppDeviceId[2];
     42            GENERICAPP_DEVICE_VERSION,        //  int   AppDevVer:4;
     43            GENERICAPP_FLAGS,                 //  int   AppFlags:4;
     44            0,          //  byte  AppNumInClusters;
     45            (cId_t *)NULL,  //  byte *pAppInClusterList;
     46            GENERICAPP_MAX_CLUSTERS,          //  byte  AppNumInClusters;
     47            (cId_t *)GenericApp_ClusterList   //  byte *pAppInClusterList;
     48          };
     49          
     50          // 端点描述符

   \                                 In  segment XDATA_Z, align 1, keep-with-next
     51          endPointDesc_t GenericApp_epDesc;
   \                     GenericApp_epDesc:
   \   000000                DS 6
   \   000006                REQUIRE __INIT_XDATA_Z
     52          
     53          
     54          /*********************************************************************
     55           * LOCAL VARIABLES
     56           */
     57          // 任务ID，优先级

   \                                 In  segment XDATA_Z, align 1, keep-with-next
     58          byte GenericApp_TaskID; 
   \                     GenericApp_TaskID:
   \   000000                DS 1
   \   000001                REQUIRE __INIT_XDATA_Z
     59          
     60          // 设备状态

   \                                 In  segment XDATA_Z, align 1, keep-with-next
     61          devStates_t GenericApp_NwkState;
   \                     GenericApp_NwkState:
   \   000000                DS 1
   \   000001                REQUIRE __INIT_XDATA_Z
     62          
     63          // 发送数据序号

   \                                 In  segment XDATA_Z, align 1, keep-with-next
     64          byte GenericApp_TransID;  // This is the unique message ID (counter)
   \                     GenericApp_TransID:
   \   000000                DS 1
   \   000001                REQUIRE __INIT_XDATA_Z
     65          
     66          // 定义组

   \                                 In  segment XDATA_Z, align 1, keep-with-next
     67          aps_Group_t GenericApp_Group;
   \                     GenericApp_Group:
   \   000000                DS 18
   \   000012                REQUIRE __INIT_XDATA_Z
     68          /*********************************************************************
     69           * LOCAL FUNCTIONS
     70           */
     71          static void GenericApp_SendTheMessage( void );
     72          static void GenericApp_MessageMSGCB( afIncomingMSGPacket_t *pkt );
     73          
     74          /*********************************************************************
     75           * @fn      GenericApp_Init
     76           *
     77           * @brief   Initialization function for the Generic App Task.
     78           *          This is called during initialization and should contain
     79           *          any application specific initialization (ie. hardware
     80           *          initialization/setup, table initialization, power up
     81           *          notificaiton ... ).
     82           *
     83           * @param   task_id - the ID assigned by OSAL.  This ID should be
     84           *                    used to send messages and set timers.
     85           *
     86           * @return  none
     87           */

   \                                 In  segment BANKED_CODE, align 1, keep-with-next
     88          void GenericApp_Init( uint8 task_id )
   \                     GenericApp_Init:
     89          {
   \   000000   74F5         MOV     A,#-0xb
   \   000002   12....       LCALL   ?BANKED_ENTER_XDATA
   \   000005                ; Saved register size: 11
   \   000005                ; Auto size: 0
   \   000005   E9           MOV     A,R1
     90            GenericApp_TaskID = task_id;
   \   000006   90....       MOV     DPTR,#GenericApp_TaskID
   \   000009   F0           MOVX    @DPTR,A
     91            
     92            GenericApp_NwkState = DEV_INIT;  // 设备未连接任何网络
   \   00000A   90....       MOV     DPTR,#GenericApp_NwkState
   \   00000D   7401         MOV     A,#0x1
   \   00000F   F0           MOVX    @DPTR,A
     93           
     94            GenericApp_TransID = 0;
   \   000010   90....       MOV     DPTR,#GenericApp_TransID
   \   000013   E4           CLR     A
   \   000014   F0           MOVX    @DPTR,A
     95          
     96            // Fill out the endpoint description.
     97            GenericApp_epDesc.endPoint = GENERICAPP_ENDPOINT;
   \   000015   90....       MOV     DPTR,#GenericApp_epDesc
   \   000018   740A         MOV     A,#0xa
   \   00001A   F0           MOVX    @DPTR,A
     98            GenericApp_epDesc.task_id = &GenericApp_TaskID;
   \   00001B   A3           INC     DPTR
   \   00001C   74..         MOV     A,#GenericApp_TaskID & 0xff
   \   00001E   F0           MOVX    @DPTR,A
   \   00001F   A3           INC     DPTR
   \   000020   74..         MOV     A,#(GenericApp_TaskID >> 8) & 0xff
   \   000022   F0           MOVX    @DPTR,A
     99            GenericApp_epDesc.simpleDesc
    100                      = (SimpleDescriptionFormat_t *)&GenericApp_SimpleDesc;
   \   000023   A3           INC     DPTR
   \   000024   74..         MOV     A,#GenericApp_SimpleDesc & 0xff
   \   000026   F0           MOVX    @DPTR,A
   \   000027   A3           INC     DPTR
   \   000028   74..         MOV     A,#(GenericApp_SimpleDesc >> 8) & 0xff
   \   00002A   F0           MOVX    @DPTR,A
    101            GenericApp_epDesc.latencyReq = noLatencyReqs;
   \   00002B   A3           INC     DPTR
   \   00002C   E4           CLR     A
   \   00002D   F0           MOVX    @DPTR,A
    102          
    103            // Register the endpoint description with the AF
    104            afRegister( &GenericApp_epDesc );  //　没有注册不能使用OSAL提供的服务
   \   00002E                ; Setup parameters for call to function afRegister
   \   00002E   7A..         MOV     R2,#GenericApp_epDesc & 0xff
   \   000030   7B..         MOV     R3,#(GenericApp_epDesc >> 8) & 0xff
   \   000032   12....       LCALL   ??afRegister?relay
    105          
    106              // 定义一个组，并初始化
    107            GenericApp_Group.ID = 0x0001;
   \   000035   90....       MOV     DPTR,#GenericApp_Group
   \   000038   7401         MOV     A,#0x1
   \   00003A   F0           MOVX    @DPTR,A
   \   00003B   A3           INC     DPTR
   \   00003C   E4           CLR     A
   \   00003D   F0           MOVX    @DPTR,A
    108            GenericApp_Group.name[0] = 6;
   \   00003E   A3           INC     DPTR
   \   00003F   7406         MOV     A,#0x6
   \   000041   F0           MOVX    @DPTR,A
    109            osal_memcpy(&(GenericApp_Group.name[1]), "neusof", 6);
   \   000042                ; Setup parameters for call to function osal_memcpy
   \   000042   75....       MOV     ?V0 + 0,#`?<Constant "neusof">` & 0xff
   \   000045   75....       MOV     ?V0 + 1,#(`?<Constant "neusof">` >> 8) & 0xff
   \   000048   75..00       MOV     ?V0 + 2,#0x0
   \   00004B   78..         MOV     R0,#?V0 + 0
   \   00004D   12....       LCALL   ?PUSH_XSTACK_I_THREE
   \   000050   7C06         MOV     R4,#0x6
   \   000052   7D00         MOV     R5,#0x0
   \   000054   7A..         MOV     R2,#(GenericApp_Group + 3) & 0xff
   \   000056   7B..         MOV     R3,#((GenericApp_Group + 3) >> 8) & 0xff
   \   000058   12....       LCALL   ??osal_memcpy?relay
   \   00005B   7403         MOV     A,#0x3
   \   00005D   12....       LCALL   ?DEALLOC_XSTACK8
    110            aps_AddGroup( GENERICAPP_ENDPOINT, &GenericApp_Group );
   \   000060                ; Setup parameters for call to function aps_AddGroup
   \   000060   7A..         MOV     R2,#GenericApp_Group & 0xff
   \   000062   7B..         MOV     R3,#(GenericApp_Group >> 8) & 0xff
   \   000064   790A         MOV     R1,#0xa
   \   000066   12....       LCALL   ??aps_AddGroup?relay
    111          }
   \   000069   7F03         MOV     R7,#0x3
   \   00006B   02....       LJMP    ?BANKED_LEAVE_XDATA
    112          
    113          /*********************************************************************
    114           * @fn      GenericApp_ProcessEvent
    115           *
    116           * @brief   Generic Application Task event processor.  This function
    117           *          is called to process all events for the task.  Events
    118           *          include timers, messages and any other user defined events.
    119           *
    120           * @param   task_id  - The OSAL assigned task ID.
    121           * @param   events - events to process.  This is a bit map and can
    122           *                   contain more than one event.
    123           *
    124           * @return  none
    125           */

   \                                 In  segment BANKED_CODE, align 1, keep-with-next
    126          uint16 GenericApp_ProcessEvent( uint8 task_id, uint16 events )
   \                     GenericApp_ProcessEvent:
    127          {
   \   000000   74F1         MOV     A,#-0xf
   \   000002   12....       LCALL   ?BANKED_ENTER_XDATA
   \   000005                ; Saved register size: 15
   \   000005                ; Auto size: 10
   \   000005   74F6         MOV     A,#-0xa
   \   000007   12....       LCALL   ?ALLOC_XSTACK8
   \   00000A   8A..         MOV     ?V0 + 0,R2
   \   00000C   8B..         MOV     ?V0 + 1,R3
    128            afIncomingMSGPacket_t *MSGpkt;  // 消息包指针
    129            
    130            if ( events & SYS_EVENT_MSG )   // 判断是否是系统事件
   \   00000E   EB           MOV     A,R3
   \   00000F   5480         ANL     A,#0x80
   \   000011   7003         JNZ     $+5
   \   000013   02....       LJMP    ??GenericApp_ProcessEvent_0 & 0xFFFF
    131            {
    132              MSGpkt = (afIncomingMSGPacket_t *)osal_msg_receive( GenericApp_TaskID );
   \   000016                ; Setup parameters for call to function osal_msg_receive
   \   000016   800D         SJMP    ??GenericApp_ProcessEvent_1
    133              while ( MSGpkt )
    134              {
    135                switch ( MSGpkt->hdr.event )
    136                {  
    137                  case AF_INCOMING_MSG_CMD:
    138                    GenericApp_MessageMSGCB(MSGpkt);
    139                    break;
    140                  case ZDO_STATE_CHANGE:  // 设备状态发生改变
    141                    GenericApp_NwkState = (devStates_t)(MSGpkt->hdr.status);
   \                     ??GenericApp_ProcessEvent_2:
   \   000018   A3           INC     DPTR
   \   000019   E0           MOVX    A,@DPTR
   \   00001A   90....       MOV     DPTR,#GenericApp_NwkState
   \   00001D   F0           MOVX    @DPTR,A
    142                    if ( GenericApp_NwkState == DEV_END_DEVICE
    143                        || GenericApp_NwkState == DEV_ROUTER)  // 设备状态为终端设备，加入网络成功
    144                    {
    145                     // aps_AddGroup( GENERICAPP_ENDPOINT, &GenericApp_Group );
    146                    }
    147                  default:
    148                    break;
    149                }
    150          
    151                // Release the memory
    152                osal_msg_deallocate( (uint8 *)MSGpkt );  // 释放消息空间，防止内存泄漏
   \                     ??GenericApp_ProcessEvent_3:
   \   00001E                ; Setup parameters for call to function osal_msg_deallocate
   \   00001E   EE           MOV     A,R6
   \   00001F   FA           MOV     R2,A
   \   000020   EF           MOV     A,R7
   \   000021   FB           MOV     R3,A
   \   000022   12....       LCALL   ??osal_msg_deallocate?relay
    153          
    154                // Next
    155                MSGpkt = (afIncomingMSGPacket_t *)osal_msg_receive( GenericApp_TaskID );
   \   000025                ; Setup parameters for call to function osal_msg_receive
   \                     ??GenericApp_ProcessEvent_1:
   \   000025   90....       MOV     DPTR,#GenericApp_TaskID
   \   000028   E0           MOVX    A,@DPTR
   \   000029   F9           MOV     R1,A
   \   00002A   12....       LCALL   ??osal_msg_receive?relay
   \   00002D   8A..         MOV     ?V0 + 2,R2
   \   00002F   8B..         MOV     ?V0 + 3,R3
   \   000031   AE..         MOV     R6,?V0 + 2
   \   000033   AF..         MOV     R7,?V0 + 3
   \   000035   EE           MOV     A,R6
   \   000036   4F           ORL     A,R7
   \   000037   607F         JZ      ??GenericApp_ProcessEvent_4
   \   000039   8E82         MOV     DPL,R6
   \   00003B   8F83         MOV     DPH,R7
   \   00003D   E0           MOVX    A,@DPTR
   \   00003E   24E6         ADD     A,#-0x1a
   \   000040   6006         JZ      ??GenericApp_ProcessEvent_5
   \   000042   2449         ADD     A,#0x49
   \   000044   60D2         JZ      ??GenericApp_ProcessEvent_2
   \   000046   80D6         SJMP    ??GenericApp_ProcessEvent_3
   \                     ??GenericApp_ProcessEvent_5:
   \   000048   A3           INC     DPTR
   \   000049   A3           INC     DPTR
   \   00004A   A3           INC     DPTR
   \   00004B   A3           INC     DPTR
   \   00004C   E0           MOVX    A,@DPTR
   \   00004D   6401         XRL     A,#0x1
   \   00004F   7002         JNZ     ??GenericApp_ProcessEvent_6
   \   000051   A3           INC     DPTR
   \   000052   E0           MOVX    A,@DPTR
   \                     ??GenericApp_ProcessEvent_6:
   \   000053   70C9         JNZ     ??GenericApp_ProcessEvent_3
   \   000055                ; Setup parameters for call to function osal_memcpy
   \   000055   EE           MOV     A,R6
   \   000056   2422         ADD     A,#0x22
   \   000058   F582         MOV     DPL,A
   \   00005A   EF           MOV     A,R7
   \   00005B   3400         ADDC    A,#0x0
   \   00005D   F583         MOV     DPH,A
   \   00005F   E0           MOVX    A,@DPTR
   \   000060   F5..         MOV     ?V0 + 4,A
   \   000062   A3           INC     DPTR
   \   000063   E0           MOVX    A,@DPTR
   \   000064   F5..         MOV     ?V0 + 5,A
   \   000066   75..00       MOV     ?V0 + 6,#0x0
   \   000069   78..         MOV     R0,#?V0 + 4
   \   00006B   12....       LCALL   ?PUSH_XSTACK_I_THREE
   \   00006E   7C02         MOV     R4,#0x2
   \   000070   7D00         MOV     R5,#0x0
   \   000072   7403         MOV     A,#0x3
   \   000074   12....       LCALL   ?XSTACK_DISP0_8
   \   000077   AA82         MOV     R2,DPL
   \   000079   AB83         MOV     R3,DPH
   \   00007B   12....       LCALL   ??osal_memcpy?relay
   \   00007E   7403         MOV     A,#0x3
   \   000080   12....       LCALL   ?DEALLOC_XSTACK8
   \   000083                ; Setup parameters for call to function osal_memcmp
   \   000083   75....       MOV     ?V0 + 4,#`?<Constant "D1">` & 0xff
   \   000086   75....       MOV     ?V0 + 5,#(`?<Constant "D1">` >> 8) & 0xff
   \   000089   78..         MOV     R0,#?V0 + 4
   \   00008B   12....       LCALL   ?PUSH_XSTACK_I_THREE
   \   00008E   7C02         MOV     R4,#0x2
   \   000090   7D00         MOV     R5,#0x0
   \   000092   7403         MOV     A,#0x3
   \   000094   12....       LCALL   ?XSTACK_DISP0_8
   \   000097   A982         MOV     R1,DPL
   \   000099   AA83         MOV     R2,DPH
   \   00009B   7B00         MOV     R3,#0x0
   \   00009D   12....       LCALL   ??osal_memcmp?relay
   \   0000A0   7403         MOV     A,#0x3
   \   0000A2   12....       LCALL   ?DEALLOC_XSTACK8
   \   0000A5   E9           MOV     A,R1
   \   0000A6   7003         JNZ     $+5
   \   0000A8   02....       LJMP    ??GenericApp_ProcessEvent_3 & 0xFFFF
   \   0000AB                ; Setup parameters for call to function HalLedSet
   \   0000AB   7A08         MOV     R2,#0x8
   \   0000AD   7902         MOV     R1,#0x2
   \   0000AF   12....       LCALL   ??HalLedSet?relay
   \   0000B2                ; Setup parameters for call to function GenericApp_SendTheMessage
   \   0000B2   12....       LCALL   ??GenericApp_SendTheMessage?relay
   \   0000B5   02....       LJMP    ??GenericApp_ProcessEvent_3 & 0xFFFF
    156              }
    157          
    158              // return unprocessed events
    159              return (events ^ SYS_EVENT_MSG);   // 返回其他未处理的消息
   \                     ??GenericApp_ProcessEvent_4:
   \   0000B8   AA..         MOV     R2,?V0 + 0
   \   0000BA   E5..         MOV     A,?V0 + 1
   \   0000BC   6480         XRL     A,#0x80
   \   0000BE   FB           MOV     R3,A
   \   0000BF   8004         SJMP    ??GenericApp_ProcessEvent_7
    160            }
    161            // Discard unknown events
    162            return 0;
   \                     ??GenericApp_ProcessEvent_0:
   \   0000C1   7A00         MOV     R2,#0x0
   \   0000C3   7B00         MOV     R3,#0x0
   \                     ??GenericApp_ProcessEvent_7:
   \   0000C5   740A         MOV     A,#0xa
   \   0000C7   12....       LCALL   ?DEALLOC_XSTACK8
   \   0000CA   7F07         MOV     R7,#0x7
   \   0000CC   02....       LJMP    ?BANKED_LEAVE_XDATA
    163          }
    164          
    165          /*********************************************************************
    166           * @fn      GenericApp_SendTheMessage
    167           *
    168           * @brief   Send "the" message.
    169           *
    170           * @param   none
    171           *
    172           * @return  none
    173           */

   \                                 In  segment BANKED_CODE, align 1, keep-with-next
    174          static void GenericApp_SendTheMessage( void )
   \                     GenericApp_SendTheMessage:
    175          {
   \   000000   74F6         MOV     A,#-0xa
   \   000002   12....       LCALL   ?BANKED_ENTER_XDATA
   \   000005                ; Saved register size: 10
   \   000005                ; Auto size: 29
   \   000005   74E3         MOV     A,#-0x1d
   \   000007   12....       LCALL   ?ALLOC_XSTACK8
    176            char theMessageData[] = "Router Received!";
   \   00000A   740C         MOV     A,#0xc
   \   00000C   12....       LCALL   ?XSTACK_DISP0_8
   \   00000F   AC82         MOV     R4,DPL
   \   000011   AD83         MOV     R5,DPH
   \   000013   7583..       MOV     DPH,#(`?<Constant "Router Received!">` >> 8) & 0xff
   \   000016   7582..       MOV     DPL,#`?<Constant "Router Received!">` & 0xff
   \   000019   7411         MOV     A,#0x11
   \   00001B   12....       LCALL   ?MOVE_LONG8_XDATA_XDATA
    177            
    178            // 目的地址
    179            afAddrType_t GenericApp_DstAddr;
    180            
    181            GenericApp_DstAddr.addr.shortAddr = 0x0000;  // 协调器的网络地址固定为0
   \   00001E   85..82       MOV     DPL,?XSP + 0
   \   000021   85..83       MOV     DPH,?XSP + 1
   \   000024   F0           MOVX    @DPTR,A
   \   000025   A3           INC     DPTR
   \   000026   F0           MOVX    @DPTR,A
    182            GenericApp_DstAddr.addrMode = afAddr16Bit;
   \   000027   7408         MOV     A,#0x8
   \   000029   12....       LCALL   ?XSTACK_DISP0_8
   \   00002C   7402         MOV     A,#0x2
   \   00002E   F0           MOVX    @DPTR,A
    183            GenericApp_DstAddr.endPoint = GENERICAPP_ENDPOINT;  // 接收端的端点号
   \   00002F   7409         MOV     A,#0x9
   \   000031   12....       LCALL   ?XSTACK_DISP0_8
   \   000034   740A         MOV     A,#0xa
   \   000036   F0           MOVX    @DPTR,A
    184            
    185            if ( AF_DataRequest( &GenericApp_DstAddr, &GenericApp_epDesc,
    186                                 GENERICAPP_CLUSTERID,
    187                                 (byte)osal_strlen( theMessageData ) + 1,
    188                                 (byte *)theMessageData,
    189                                 &GenericApp_TransID,
    190                                 AF_DISCV_ROUTE, AF_DEFAULT_RADIUS ) == afStatus_SUCCESS )
   \   000037                ; Setup parameters for call to function AF_DataRequest
   \   000037   75..1E       MOV     ?V0 + 0,#0x1e
   \   00003A   78..         MOV     R0,#?V0 + 0
   \   00003C   12....       LCALL   ?PUSH_XSTACK_I_ONE
   \   00003F   75....       MOV     ?V0 + 0,#GenericApp_TransID & 0xff
   \   000042   75....       MOV     ?V0 + 1,#(GenericApp_TransID >> 8) & 0xff
   \   000045   78..         MOV     R0,#?V0 + 0
   \   000047   12....       LCALL   ?PUSH_XSTACK_I_TWO
   \   00004A   740F         MOV     A,#0xf
   \   00004C   12....       LCALL   ?XSTACK_DISP0_8
   \   00004F   8582..       MOV     ?V0 + 0,DPL
   \   000052   8583..       MOV     ?V0 + 1,DPH
   \   000055   78..         MOV     R0,#?V0 + 0
   \   000057   12....       LCALL   ?PUSH_XSTACK_I_TWO
   \   00005A                ; Setup parameters for call to function osal_strlen
   \   00005A   7411         MOV     A,#0x11
   \   00005C   12....       LCALL   ?XSTACK_DISP0_8
   \   00005F   AA82         MOV     R2,DPL
   \   000061   AB83         MOV     R3,DPH
   \   000063   12....       LCALL   ??osal_strlen?relay
   \   000066   EA           MOV     A,R2
   \   000067   2401         ADD     A,#0x1
   \   000069   F5..         MOV     ?V0 + 0,A
   \   00006B   E4           CLR     A
   \   00006C   3400         ADDC    A,#0x0
   \   00006E   F5..         MOV     ?V0 + 1,A
   \   000070   78..         MOV     R0,#?V0 + 0
   \   000072   12....       LCALL   ?PUSH_XSTACK_I_TWO
   \   000075   75..01       MOV     ?V0 + 0,#0x1
   \   000078   75..00       MOV     ?V0 + 1,#0x0
   \   00007B   78..         MOV     R0,#?V0 + 0
   \   00007D   12....       LCALL   ?PUSH_XSTACK_I_TWO
   \   000080   7920         MOV     R1,#0x20
   \   000082   7C..         MOV     R4,#GenericApp_epDesc & 0xff
   \   000084   7D..         MOV     R5,#(GenericApp_epDesc >> 8) & 0xff
   \   000086   7409         MOV     A,#0x9
   \   000088   12....       LCALL   ?XSTACK_DISP0_8
   \   00008B   AA82         MOV     R2,DPL
   \   00008D   AB83         MOV     R3,DPH
   \   00008F   12....       LCALL   ??AF_DataRequest?relay
   \   000092   7409         MOV     A,#0x9
   \   000094   12....       LCALL   ?DEALLOC_XSTACK8
   \   000097   E9           MOV     A,R1
   \   000098   7004         JNZ     ??GenericApp_SendTheMessage_0
    191            {
    192              // Successfully requested to be sent.
    193              HalLedSet( HAL_LED_1, HAL_LED_MODE_TOGGLE );  // 点灯
   \   00009A                ; Setup parameters for call to function HalLedSet
   \   00009A   7A08         MOV     R2,#0x8
   \   00009C   8002         SJMP    ??GenericApp_SendTheMessage_1
    194            }
    195            else
    196            {
    197              
    198              HalLedSet( HAL_LED_1, HAL_LED_MODE_OFF );   // 关灯
   \                     ??GenericApp_SendTheMessage_0:
   \   00009E                ; Setup parameters for call to function HalLedSet
   \   00009E   7A00         MOV     R2,#0x0
   \                     ??GenericApp_SendTheMessage_1:
   \   0000A0   7901         MOV     R1,#0x1
   \   0000A2   12....       LCALL   ??HalLedSet?relay
    199              // Error occurred in request to send.
    200            }
    201          }
   \   0000A5   741D         MOV     A,#0x1d
   \   0000A7   12....       LCALL   ?DEALLOC_XSTACK8
   \   0000AA   7F02         MOV     R7,#0x2
   \   0000AC   02....       LJMP    ?BANKED_LEAVE_XDATA

   \                                 In  segment BANK_RELAYS, align 1
   \                     ??GenericApp_Init?relay:
   \   000000   12....       LCALL   ?BDISPATCH
   \   000003   ......       DC24    GenericApp_Init

   \                                 In  segment BANK_RELAYS, align 1
   \                     ??GenericApp_ProcessEvent?relay:
   \   000000   12....       LCALL   ?BDISPATCH
   \   000003   ......       DC24    GenericApp_ProcessEvent

   \                                 In  segment BANK_RELAYS, align 1
   \                     ??GenericApp_SendTheMessage?relay:
   \   000000   12....       LCALL   ?BDISPATCH
   \   000003   ......       DC24    GenericApp_SendTheMessage

   \                                 In  segment XDATA_ROM_C, align 1
   \                     `?<Constant "neusof">`:
   \   000000   6E657573     DB "neusof"
   \            6F6600  

   \                                 In  segment XDATA_ROM_C, align 1
   \                     `?<Constant "Router Received!">`:
   \   000000   526F7574     DB "Router Received!"
   \            65722052
   \            65636569
   \            76656421
   \            00      

   \                                 In  segment XDATA_ROM_C, align 1
   \                     `?<Constant "D1">`:
   \   000000   443100       DB "D1"
    202          
    203          static void GenericApp_MessageMSGCB( afIncomingMSGPacket_t *pkt )
    204          {
    205            uint8 buffer[10];
    206            switch ( pkt->clusterId )
    207            {
    208              case GENERICAPP_CLUSTERID:
    209                osal_memcpy(buffer, pkt->cmd.Data, 2);
    210                if (osal_memcmp(buffer, "D1", 2))
    211                {
    212                  HalLedSet( HAL_LED_2, HAL_LED_MODE_TOGGLE );
    213                  GenericApp_SendTheMessage();  // 回复数据
    214                }
    215          
    216                break;
    217            }
    218          }

   Maximum stack usage in bytes:

     Function                       ISTACK PSTACK XSTACK
     --------                       ------ ------ ------
     GenericApp_Init                    0      0     14
       -> afRegister                    0      0     22
       -> osal_memcpy                   0      0     28
       -> aps_AddGroup                  0      0     22
     GenericApp_ProcessEvent            0      0     28
       -> osal_msg_receive              0      0     50
       -> osal_msg_deallocate           0      0     50
       -> osal_msg_receive              0      0     50
       -> osal_memcpy                   0      0     56
       -> osal_memcmp                   0      0     56
       -> HalLedSet                     0      0     50
       -> GenericApp_SendTheMessage     0      0     50
     GenericApp_SendTheMessage          2      0     73
       -> osal_strlen                   0      0     88
       -> AF_DataRequest                0      0     96
       -> HalLedSet                     0      0     78
       -> HalLedSet                     0      0     78


   Segment part sizes:

     Function/Label                    Bytes
     --------------                    -----
     GenericApp_ClusterList               2
     GenericApp_SimpleDesc               12
     GenericApp_epDesc                    6
     GenericApp_TaskID                    1
     GenericApp_NwkState                  1
     GenericApp_TransID                   1
     GenericApp_Group                    18
     GenericApp_Init                    110
     GenericApp_ProcessEvent            207
     GenericApp_SendTheMessage          175
     ??GenericApp_Init?relay              6
     ??GenericApp_ProcessEvent?relay      6
     ??GenericApp_SendTheMessage?relay    6
     ?<Constant "neusof">                 7
     ?<Constant "Router Received!">      17
     ?<Constant "D1">                     3

 
 492 bytes in segment BANKED_CODE
  18 bytes in segment BANK_RELAYS
  41 bytes in segment XDATA_ROM_C
  27 bytes in segment XDATA_Z
 
 510 bytes of CODE  memory
  41 bytes of CONST memory
  27 bytes of XDATA memory

Errors: none
Warnings: none
