###############################################################################
#                                                                             #
# IAR C/C++ Compiler V8.10.3.10338/W32 for 8051         21/Mar/2017  17:01:42 #
# Copyright 2004-2011 IAR Systems AB.                                         #
#                                                                             #
#    Core               =  plain                                              #
#    Code model         =  banked                                             #
#    Data model         =  large                                              #
#    Calling convention =  xdata reentrant                                    #
#    Constant location  =  data_rom                                           #
#    Dptr setup         =  1,16                                               #
#    Source file        =  D:\Texas Instruments\ZStack-CC2530-2.5.1a\Projects #
#                          \zstack\Samples\GenericAppUnicast\CC2530DB\Coordin #
#                          ator.c                                             #
#    Command line       =  -f "D:\Texas Instruments\ZStack-CC2530-2.5.1a\Proj #
#                          ects\zstack\Samples\GenericAppUnicast\CC2530DB\..\ #
#                          ..\..\Tools\CC2530DB\f8wCoord.cfg" (-DCPU32MHZ     #
#                          -DROOT=__near_func -DMAC_CFG_APP_PENDING_QUEUE=TRU #
#                          E -DMAC_CFG_TX_DATA_MAX=5 -DMAC_CFG_TX_MAX=8       #
#                          -DMAC_CFG_RX_MAX=5 -DZDO_COORDINATOR -DRTR_NWK)    #
#                          -f "D:\Texas Instruments\ZStack-CC2530-2.5.1a\Proj #
#                          ects\zstack\Samples\GenericAppUnicast\CC2530DB\..\ #
#                          ..\..\Tools\CC2530DB\f8wConfig.cfg" (-DZIGBEEPRO   #
#                          -DSECURE=0 -DZG_SECURE_DYNAMIC=0 -DREFLECTOR       #
#                          -DDEFAULT_CHANLIST=0x00000800                      #
#                          -DZDAPP_CONFIG_PAN_ID=0xFFFF                       #
#                          -DNWK_START_DELAY=100 -DEXTENDED_JOINING_RANDOM_MA #
#                          SK=0x007F -DBEACON_REQUEST_DELAY=100               #
#                          -DBEACON_REQ_DELAY_MASK=0x00FF                     #
#                          -DLINK_STATUS_JITTER_MASK=0x007F                   #
#                          -DROUTE_EXPIRY_TIME=30 -DAPSC_ACK_WAIT_DURATION_PO #
#                          LLED=3000 -DNWK_INDIRECT_MSG_TIMEOUT=7             #
#                          -DMAX_RREQ_ENTRIES=8 -DAPSC_MAX_FRAME_RETRIES=3    #
#                          -DNWK_MAX_DATA_RETRIES=2                           #
#                          -DMAX_POLL_FAILURE_RETRIES=2 -DMAX_BCAST=9         #
#                          -DAPS_MAX_GROUPS=16 -DMAX_RTG_ENTRIES=40           #
#                          -DNWK_MAX_BINDING_ENTRIES=4                        #
#                          -DMAX_BINDING_CLUSTER_IDS=4 "-DDEFAULT_KEY={0x01,  #
#                          0x03, 0x05, 0x07, 0x09, 0x0B, 0x0D, 0x0F, 0x00,    #
#                          0x02, 0x04, 0x06, 0x08, 0x0A, 0x0C, 0x0D}"         #
#                          -DMAC_MAX_FRAME_SIZE=116                           #
#                          -DZDNWKMGR_MIN_TRANSMISSIONS=20 "-DCONST=const     #
#                          __code" -DGENERIC=__generic                        #
#                          -DRFD_RCVC_ALWAYS_ON=FALSE -DPOLL_RATE=1000        #
#                          -DQUEUED_POLL_RATE=100 -DRESPONSE_POLL_RATE=100)   #
#                          -DREJOIN_POLL_RATE=440 "D:\Texas                   #
#                          Instruments\ZStack-CC2530-2.5.1a\Projects\zstack\S #
#                          amples\GenericAppUnicast\CC2530DB\Coordinator.c"   #
#                          -D ZTOOL_P1 -D MT_TASK -D MT_SYS_FUNC -D           #
#                          MT_ZDO_FUNC -D LCD_SUPPORTED=DEBUG -lC "D:\Texas   #
#                          Instruments\ZStack-CC2530-2.5.1a\Projects\zstack\S #
#                          amples\GenericAppUnicast\CC2530DB\CoordinatorEB\Li #
#                          st\" -lA "D:\Texas Instruments\ZStack-CC2530-2.5.1 #
#                          a\Projects\zstack\Samples\GenericAppUnicast\CC2530 #
#                          DB\CoordinatorEB\List\" --diag_suppress            #
#                          Pe001,Pa010 -o "D:\Texas                           #
#                          Instruments\ZStack-CC2530-2.5.1a\Projects\zstack\S #
#                          amples\GenericAppUnicast\CC2530DB\CoordinatorEB\Ob #
#                          j\" -e --no_code_motion --debug --core=plain       #
#                          --dptr=16,1 --data_model=large                     #
#                          --code_model=banked --calling_convention=xdata_ree #
#                          ntrant --place_constants=data_rom                  #
#                          --nr_virtual_regs 16 -I "D:\Texas                  #
#                          Instruments\ZStack-CC2530-2.5.1a\Projects\zstack\S #
#                          amples\GenericAppUnicast\CC2530DB\" -I "D:\Texas   #
#                          Instruments\ZStack-CC2530-2.5.1a\Projects\zstack\S #
#                          amples\GenericAppUnicast\CC2530DB\..\Source\" -I   #
#                          "D:\Texas Instruments\ZStack-CC2530-2.5.1a\Project #
#                          s\zstack\Samples\GenericAppUnicast\CC2530DB\..\..\ #
#                          ..\ZMain\TI2530DB\" -I "D:\Texas                   #
#                          Instruments\ZStack-CC2530-2.5.1a\Projects\zstack\S #
#                          amples\GenericAppUnicast\CC2530DB\..\..\..\..\..\C #
#                          omponents\hal\include\" -I "D:\Texas               #
#                          Instruments\ZStack-CC2530-2.5.1a\Projects\zstack\S #
#                          amples\GenericAppUnicast\CC2530DB\..\..\..\..\..\C #
#                          omponents\hal\target\CC2530EB\" -I "D:\Texas       #
#                          Instruments\ZStack-CC2530-2.5.1a\Projects\zstack\S #
#                          amples\GenericAppUnicast\CC2530DB\..\..\..\..\..\C #
#                          omponents\mac\include\" -I "D:\Texas               #
#                          Instruments\ZStack-CC2530-2.5.1a\Projects\zstack\S #
#                          amples\GenericAppUnicast\CC2530DB\..\..\..\..\..\C #
#                          omponents\mac\high_level\" -I "D:\Texas            #
#                          Instruments\ZStack-CC2530-2.5.1a\Projects\zstack\S #
#                          amples\GenericAppUnicast\CC2530DB\..\..\..\..\..\C #
#                          omponents\mac\low_level\srf04\" -I "D:\Texas       #
#                          Instruments\ZStack-CC2530-2.5.1a\Projects\zstack\S #
#                          amples\GenericAppUnicast\CC2530DB\..\..\..\..\..\C #
#                          omponents\mac\low_level\srf04\single_chip\" -I     #
#                          "D:\Texas Instruments\ZStack-CC2530-2.5.1a\Project #
#                          s\zstack\Samples\GenericAppUnicast\CC2530DB\..\..\ #
#                          ..\..\..\Components\mt\" -I "D:\Texas              #
#                          Instruments\ZStack-CC2530-2.5.1a\Projects\zstack\S #
#                          amples\GenericAppUnicast\CC2530DB\..\..\..\..\..\C #
#                          omponents\osal\include\" -I "D:\Texas              #
#                          Instruments\ZStack-CC2530-2.5.1a\Projects\zstack\S #
#                          amples\GenericAppUnicast\CC2530DB\..\..\..\..\..\C #
#                          omponents\services\saddr\" -I "D:\Texas            #
#                          Instruments\ZStack-CC2530-2.5.1a\Projects\zstack\S #
#                          amples\GenericAppUnicast\CC2530DB\..\..\..\..\..\C #
#                          omponents\services\sdata\" -I "D:\Texas            #
#                          Instruments\ZStack-CC2530-2.5.1a\Projects\zstack\S #
#                          amples\GenericAppUnicast\CC2530DB\..\..\..\..\..\C #
#                          omponents\stack\af\" -I "D:\Texas                  #
#                          Instruments\ZStack-CC2530-2.5.1a\Projects\zstack\S #
#                          amples\GenericAppUnicast\CC2530DB\..\..\..\..\..\C #
#                          omponents\stack\nwk\" -I "D:\Texas                 #
#                          Instruments\ZStack-CC2530-2.5.1a\Projects\zstack\S #
#                          amples\GenericAppUnicast\CC2530DB\..\..\..\..\..\C #
#                          omponents\stack\sapi\" -I "D:\Texas                #
#                          Instruments\ZStack-CC2530-2.5.1a\Projects\zstack\S #
#                          amples\GenericAppUnicast\CC2530DB\..\..\..\..\..\C #
#                          omponents\stack\sec\" -I "D:\Texas                 #
#                          Instruments\ZStack-CC2530-2.5.1a\Projects\zstack\S #
#                          amples\GenericAppUnicast\CC2530DB\..\..\..\..\..\C #
#                          omponents\stack\sys\" -I "D:\Texas                 #
#                          Instruments\ZStack-CC2530-2.5.1a\Projects\zstack\S #
#                          amples\GenericAppUnicast\CC2530DB\..\..\..\..\..\C #
#                          omponents\stack\zdo\" -I "D:\Texas                 #
#                          Instruments\ZStack-CC2530-2.5.1a\Projects\zstack\S #
#                          amples\GenericAppUnicast\CC2530DB\..\..\..\..\..\C #
#                          omponents\zmac\" -I "D:\Texas                      #
#                          Instruments\ZStack-CC2530-2.5.1a\Projects\zstack\S #
#                          amples\GenericAppUnicast\CC2530DB\..\..\..\..\..\C #
#                          omponents\zmac\f8w\" -Ohz --require_prototypes     #
#    List file          =  D:\Texas Instruments\ZStack-CC2530-2.5.1a\Projects #
#                          \zstack\Samples\GenericAppUnicast\CC2530DB\Coordin #
#                          atorEB\List\Coordinator.lst                        #
#    Object file        =  D:\Texas Instruments\ZStack-CC2530-2.5.1a\Projects #
#                          \zstack\Samples\GenericAppUnicast\CC2530DB\Coordin #
#                          atorEB\Obj\Coordinator.r51                         #
#                                                                             #
#                                                                             #
###############################################################################

D:\Texas Instruments\ZStack-CC2530-2.5.1a\Projects\zstack\Samples\GenericAppUnicast\CC2530DB\Coordinator.c
      1          
      2          /*********************************************************************
      3           * INCLUDES
      4           */
      5          #include "OSAL.h"
      6          #include "AF.h"
      7          #include "ZDApp.h"
      8          #include "ZDObject.h"
      9          #include "ZDProfile.h"
     10          
     11          #include "Coordinator.h"
     12          #include "DebugTrace.h"
     13          
     14          #if !defined( WIN32 )
     15            #include "OnBoard.h"
     16          #endif
     17          
     18          /* HAL */
     19          #include "hal_lcd.h"
     20          #include "hal_led.h"
     21          #include "hal_key.h"
     22          #include "hal_uart.h"
     23          
     24          
     25          // This list should be filled with Application specific Cluster IDs.

   \                                 In  segment XDATA_ROM_C, align 1
     26          const cId_t GenericApp_ClusterList[GENERICAPP_MAX_CLUSTERS] =
   \                     GenericApp_ClusterList:
   \   000000   0100         DW 1
     27          {
     28            GENERICAPP_CLUSTERID    // 命令ID
     29          };
     30          
     31          
     32          // 简单描述

   \                                 In  segment XDATA_ROM_C, align 1
     33          const SimpleDescriptionFormat_t GenericApp_SimpleDesc =
   \                     GenericApp_SimpleDesc:
   \   000000   0A           DB 10
   \   000001   040F         DW 3844
   \   000003   0100         DW 1
   \   000005   00           DB 0
   \   000006   01           DB 1
   \   000007   ....         DW GenericApp_ClusterList
   \   000009   00           DB 0
   \   00000A   0000         DW 0H
     34          {
     35            GENERICAPP_ENDPOINT,              //  int Endpoint; 端点号
     36            GENERICAPP_PROFID,                //  uint16 AppProfId[2];
     37            GENERICAPP_DEVICEID,              //  uint16 AppDeviceId[2];
     38            GENERICAPP_DEVICE_VERSION,        //  int   AppDevVer:4;
     39            GENERICAPP_FLAGS,                 //  int   AppFlags:4;
     40            GENERICAPP_MAX_CLUSTERS,          //  输入集群数;
     41            (cId_t *)GenericApp_ClusterList,  //  输入集群;
     42            0,                                //  输出集群数;
     43            (cId_t *)NULL                     // 输出集群;
     44          };
     45          
     46          // This is the Endpoint/Interface description.  It is defined here, but
     47          // filled-in in GenericApp_Init().  Another way to go would be to fill
     48          // in the structure here and make it a "const" (in code space).  The
     49          // way it's defined in this sample app it is define in RAM.
     50          

   \                                 In  segment XDATA_Z, align 1, keep-with-next
     51          endPointDesc_t GenericApp_epDesc;  // 端点描述符
   \                     GenericApp_epDesc:
   \   000000                DS 6
   \   000006                REQUIRE __INIT_XDATA_Z
     52          
     53          
     54          /*********************************************************************
     55           * LOCAL VARIABLES
     56           */
     57          
     58          // 任务ID

   \                                 In  segment XDATA_Z, align 1, keep-with-next
     59          byte GenericApp_TaskID;   // Task ID for internal task/event processing
   \                     GenericApp_TaskID:
   \   000000                DS 1
   \   000001                REQUIRE __INIT_XDATA_Z
     60                                    // This variable will be received when
     61                                    // GenericApp_Init() is called.
     62          // 消息ID

   \                                 In  segment XDATA_Z, align 1, keep-with-next
     63          byte GenericApp_TransID;  // This is the unique message ID (counter)
   \                     GenericApp_TransID:
   \   000000                DS 1
   \   000001                REQUIRE __INIT_XDATA_Z
     64          
     65          
     66          /*********************************************************************
     67           * LOCAL FUNCTIONS
     68           */
     69          
     70          static void GenericApp_MessageMSGCB( afIncomingMSGPacket_t *pckt );
     71          
     72          /*********************************************************************
     73           * @fn      GenericApp_Init
     74           *
     75           * @brief   Initialization function for the Generic App Task.
     76           *          This is called during initialization and should contain
     77           *          any application specific initialization (ie. hardware
     78           *          initialization/setup, table initialization, power up
     79           *          notificaiton ... ).
     80           *
     81           * @param   task_id - the ID assigned by OSAL.  This ID should be
     82           *                    used to send messages and set timers.
     83           *
     84           * @return  none
     85           */

   \                                 In  segment BANKED_CODE, align 1, keep-with-next
     86          void GenericApp_Init( uint8 task_id )
   \                     GenericApp_Init:
     87          {
   \   000000   74F7         MOV     A,#-0x9
   \   000002   12....       LCALL   ?BANKED_ENTER_XDATA
   \   000005                ; Saved register size: 9
   \   000005                ; Auto size: 0
   \   000005   E9           MOV     A,R1
     88            GenericApp_TaskID = task_id;     // 保存任务ID
   \   000006   90....       MOV     DPTR,#GenericApp_TaskID
   \   000009   F0           MOVX    @DPTR,A
     89            
     90            GenericApp_TransID = 0;
   \   00000A   90....       MOV     DPTR,#GenericApp_TransID
   \   00000D   E4           CLR     A
   \   00000E   F0           MOVX    @DPTR,A
     91          
     92            
     93            // Fill out the endpoint description.  初始化端点描述符
     94            GenericApp_epDesc.endPoint = GENERICAPP_ENDPOINT;
   \   00000F   90....       MOV     DPTR,#GenericApp_epDesc
   \   000012   740A         MOV     A,#0xa
   \   000014   F0           MOVX    @DPTR,A
     95            GenericApp_epDesc.task_id = &GenericApp_TaskID;
   \   000015   A3           INC     DPTR
   \   000016   74..         MOV     A,#GenericApp_TaskID & 0xff
   \   000018   F0           MOVX    @DPTR,A
   \   000019   A3           INC     DPTR
   \   00001A   74..         MOV     A,#(GenericApp_TaskID >> 8) & 0xff
   \   00001C   F0           MOVX    @DPTR,A
     96            GenericApp_epDesc.simpleDesc
     97                      = (SimpleDescriptionFormat_t *)&GenericApp_SimpleDesc;
   \   00001D   A3           INC     DPTR
   \   00001E   74..         MOV     A,#GenericApp_SimpleDesc & 0xff
   \   000020   F0           MOVX    @DPTR,A
   \   000021   A3           INC     DPTR
   \   000022   74..         MOV     A,#(GenericApp_SimpleDesc >> 8) & 0xff
   \   000024   F0           MOVX    @DPTR,A
     98            GenericApp_epDesc.latencyReq = noLatencyReqs;
   \   000025   A3           INC     DPTR
   \   000026   E4           CLR     A
   \   000027   F0           MOVX    @DPTR,A
     99          
    100            // Register the endpoint description with the AF 注册端点
    101            afRegister( &GenericApp_epDesc );
   \   000028                ; Setup parameters for call to function afRegister
   \   000028   7A..         MOV     R2,#GenericApp_epDesc & 0xff
   \   00002A   7B..         MOV     R3,#(GenericApp_epDesc >> 8) & 0xff
   \   00002C   12....       LCALL   ??afRegister?relay
    102          }
   \   00002F   7F01         MOV     R7,#0x1
   \   000031   02....       LJMP    ?BANKED_LEAVE_XDATA
    103          
    104          /*********************************************************************
    105           * @fn      GenericApp_ProcessEvent
    106           *
    107           * @brief   Generic Application Task event processor.  This function
    108           *          is called to process all events for the task.  Events
    109           *          include timers, messages and any other user defined events.
    110           *
    111           * @param   task_id  - The OSAL assigned task ID.
    112           * @param   events - events to process.  This is a bit map and can
    113           *                   contain more than one event.
    114           *
    115           * @return  none
    116           */

   \                                 In  segment BANKED_CODE, align 1, keep-with-next
    117          uint16 GenericApp_ProcessEvent( uint8 task_id, uint16 events )
   \                     GenericApp_ProcessEvent:
    118          {
   \   000000   74F1         MOV     A,#-0xf
   \   000002   12....       LCALL   ?BANKED_ENTER_XDATA
   \   000005                ; Saved register size: 15
   \   000005                ; Auto size: 3
   \   000005   74FD         MOV     A,#-0x3
   \   000007   12....       LCALL   ?ALLOC_XSTACK8
   \   00000A   8A..         MOV     ?V0 + 0,R2
   \   00000C   8B..         MOV     ?V0 + 1,R3
    119            afIncomingMSGPacket_t *MSGpkt;
    120            
    121            if ( events & SYS_EVENT_MSG )
   \   00000E   EB           MOV     A,R3
   \   00000F   5480         ANL     A,#0x80
   \   000011   7003         JNZ     $+5
   \   000013   02....       LJMP    ??GenericApp_ProcessEvent_0 & 0xFFFF
    122            {
    123              MSGpkt = (afIncomingMSGPacket_t *)osal_msg_receive( GenericApp_TaskID );
   \   000016                ; Setup parameters for call to function osal_msg_receive
   \   000016   02....       LJMP    ??GenericApp_ProcessEvent_1 & 0xFFFF
    124              while ( MSGpkt )
    125              {
    126                switch ( MSGpkt->hdr.event )
   \                     ??GenericApp_ProcessEvent_2:
   \   000019   8E82         MOV     DPL,R6
   \   00001B   8F83         MOV     DPH,R7
   \   00001D   E0           MOVX    A,@DPTR
   \   00001E   641A         XRL     A,#0x1a
   \   000020   7076         JNZ     ??GenericApp_ProcessEvent_3
    127                {
    128          
    129                  case AF_INCOMING_MSG_CMD:
    130                    GenericApp_MessageMSGCB( MSGpkt );
   \   000022   85..82       MOV     DPL,?XSP + 0
   \   000025   85..83       MOV     DPH,?XSP + 1
   \   000028   AC82         MOV     R4,DPL
   \   00002A   AD83         MOV     R5,DPH
   \   00002C   7583..       MOV     DPH,#(`?<Constant "">` >> 8) & 0xff
   \   00002F   7582..       MOV     DPL,#`?<Constant "">` & 0xff
   \   000032   7403         MOV     A,#0x3
   \   000034   12....       LCALL   ?MOVE_LONG8_XDATA_XDATA
   \   000037   8E82         MOV     DPL,R6
   \   000039   8F83         MOV     DPH,R7
   \   00003B   A3           INC     DPTR
   \   00003C   A3           INC     DPTR
   \   00003D   A3           INC     DPTR
   \   00003E   A3           INC     DPTR
   \   00003F   E0           MOVX    A,@DPTR
   \   000040   6401         XRL     A,#0x1
   \   000042   7002         JNZ     ??GenericApp_ProcessEvent_4
   \   000044   A3           INC     DPTR
   \   000045   E0           MOVX    A,@DPTR
   \                     ??GenericApp_ProcessEvent_4:
   \   000046   7050         JNZ     ??GenericApp_ProcessEvent_3
   \   000048                ; Setup parameters for call to function osal_memcpy
   \   000048   EE           MOV     A,R6
   \   000049   2422         ADD     A,#0x22
   \   00004B   F582         MOV     DPL,A
   \   00004D   EF           MOV     A,R7
   \   00004E   3400         ADDC    A,#0x0
   \   000050   F583         MOV     DPH,A
   \   000052   E0           MOVX    A,@DPTR
   \   000053   F5..         MOV     ?V0 + 4,A
   \   000055   A3           INC     DPTR
   \   000056   E0           MOVX    A,@DPTR
   \   000057   F5..         MOV     ?V0 + 5,A
   \   000059   75..00       MOV     ?V0 + 6,#0x0
   \   00005C   78..         MOV     R0,#?V0 + 4
   \   00005E   12....       LCALL   ?PUSH_XSTACK_I_THREE
   \   000061   7C02         MOV     R4,#0x2
   \   000063   7D00         MOV     R5,#0x0
   \   000065   7403         MOV     A,#0x3
   \   000067   12....       LCALL   ?XSTACK_DISP0_8
   \   00006A   AA82         MOV     R2,DPL
   \   00006C   AB83         MOV     R3,DPH
   \   00006E   12....       LCALL   ??osal_memcpy?relay
   \   000071   7403         MOV     A,#0x3
   \   000073   12....       LCALL   ?DEALLOC_XSTACK8
   \   000076   85..82       MOV     DPL,?XSP + 0
   \   000079   85..83       MOV     DPH,?XSP + 1
   \   00007C   E0           MOVX    A,@DPTR
   \   00007D   6444         XRL     A,#0x44
   \   00007F   7017         JNZ     ??GenericApp_ProcessEvent_3
   \   000081   7401         MOV     A,#0x1
   \   000083   12....       LCALL   ?XSTACK_DISP0_8
   \   000086   E0           MOVX    A,@DPTR
   \   000087   6431         XRL     A,#0x31
   \   000089   700D         JNZ     ??GenericApp_ProcessEvent_3
   \   00008B                ; Setup parameters for call to function HalLedBlink
   \   00008B   7CF4         MOV     R4,#-0xc
   \   00008D   7D01         MOV     R5,#0x1
   \   00008F   7B32         MOV     R3,#0x32
   \   000091   7A00         MOV     R2,#0x0
   \   000093   7902         MOV     R1,#0x2
   \   000095   12....       LCALL   ??HalLedBlink?relay
    131                    break;
    132          /*
    133                  case ZDO_STATE_CHANGE:
    134                    GenericApp_NwkState = (devStates_t)(MSGpkt->hdr.status);
    135                    if ( (GenericApp_NwkState == DEV_ZB_COORD)
    136                        || (GenericApp_NwkState == DEV_ROUTER)
    137                        || (GenericApp_NwkState == DEV_END_DEVICE) )
    138                    {
    139                      // Start sending "the" message in a regular interval.
    140                      osal_start_timerEx( GenericApp_TaskID,
    141                                          GENERICAPP_SEND_MSG_EVT,
    142                                          GENERICAPP_SEND_MSG_TIMEOUT );
    143                    }
    144                    break;
    145                    */
    146          
    147                  default:
    148                    break;
    149                }
    150          
    151                // Release the memory
    152                osal_msg_deallocate( (uint8 *)MSGpkt );
   \                     ??GenericApp_ProcessEvent_3:
   \   000098                ; Setup parameters for call to function osal_msg_deallocate
   \   000098   EE           MOV     A,R6
   \   000099   FA           MOV     R2,A
   \   00009A   EF           MOV     A,R7
   \   00009B   FB           MOV     R3,A
   \   00009C   12....       LCALL   ??osal_msg_deallocate?relay
    153          
    154                // Next
    155                MSGpkt = (afIncomingMSGPacket_t *)osal_msg_receive( GenericApp_TaskID );
   \   00009F                ; Setup parameters for call to function osal_msg_receive
   \                     ??GenericApp_ProcessEvent_1:
   \   00009F   90....       MOV     DPTR,#GenericApp_TaskID
   \   0000A2   E0           MOVX    A,@DPTR
   \   0000A3   F9           MOV     R1,A
   \   0000A4   12....       LCALL   ??osal_msg_receive?relay
   \   0000A7   8A..         MOV     ?V0 + 2,R2
   \   0000A9   8B..         MOV     ?V0 + 3,R3
   \   0000AB   AE..         MOV     R6,?V0 + 2
   \   0000AD   AF..         MOV     R7,?V0 + 3
    156              }
   \   0000AF   EE           MOV     A,R6
   \   0000B0   4F           ORL     A,R7
   \   0000B1   6003         JZ      $+5
   \   0000B3   02....       LJMP    ??GenericApp_ProcessEvent_2 & 0xFFFF
    157          
    158              // return unprocessed events
    159              return (events ^ SYS_EVENT_MSG);
   \   0000B6   AA..         MOV     R2,?V0 + 0
   \   0000B8   E5..         MOV     A,?V0 + 1
   \   0000BA   6480         XRL     A,#0x80
   \   0000BC   FB           MOV     R3,A
   \   0000BD   8004         SJMP    ??GenericApp_ProcessEvent_5
    160            }
    161          
    162            // Discard unknown events
    163            return 0;
   \                     ??GenericApp_ProcessEvent_0:
   \   0000BF   7A00         MOV     R2,#0x0
   \   0000C1   7B00         MOV     R3,#0x0
   \                     ??GenericApp_ProcessEvent_5:
   \   0000C3   7403         MOV     A,#0x3
   \   0000C5   12....       LCALL   ?DEALLOC_XSTACK8
   \   0000C8   7F07         MOV     R7,#0x7
   \   0000CA   02....       LJMP    ?BANKED_LEAVE_XDATA
    164          }

   \                                 In  segment BANK_RELAYS, align 1
   \                     ??GenericApp_Init?relay:
   \   000000   12....       LCALL   ?BDISPATCH
   \   000003   ......       DC24    GenericApp_Init

   \                                 In  segment BANK_RELAYS, align 1
   \                     ??GenericApp_ProcessEvent?relay:
   \   000000   12....       LCALL   ?BDISPATCH
   \   000003   ......       DC24    GenericApp_ProcessEvent

   \                                 In  segment XDATA_ROM_C, align 1
   \                     `?<Constant "">`:
   \   000000   00           DB ""
   \   000001   0000         DB 0, 0
    165          
    166          /*********************************************************************
    167           * LOCAL FUNCTIONS
    168           */
    169          
    170          /*********************************************************************
    171           * @fn      GenericApp_MessageMSGCB
    172           *
    173           * @brief   Data message processor callback.  This function processes
    174           *          any incoming data - probably from other devices.  So, based
    175           *          on cluster ID, perform the intended action.
    176           *
    177           * @param   none
    178           *
    179           * @return  none
    180           */
    181          static void GenericApp_MessageMSGCB( afIncomingMSGPacket_t *pkt )
    182          {
    183            unsigned char buffer[3] = "";
    184            
    185            switch ( pkt->clusterId )
    186            {
    187              case GENERICAPP_CLUSTERID:
    188                osal_memcpy(buffer, pkt->cmd.Data, 2);
    189                if ((buffer[0] == 'D') && (buffer[1] == '1'))
    190                {
    191                  HalLedBlink(HAL_LED_2, 0, 50, 500);
    192                }
    193                
    194                break;
    195            }
    196          }
    197          
    198          
    199          
    200          

   Maximum stack usage in bytes:

     Function                 ISTACK PSTACK XSTACK
     --------                 ------ ------ ------
     GenericApp_Init              0      0      9
       -> afRegister              0      0     18
     GenericApp_ProcessEvent      2      0     21
       -> osal_msg_receive        0      0     36
       -> osal_memcpy             0      0     42
       -> HalLedBlink             0      0     36
       -> osal_msg_deallocate     0      0     36
       -> osal_msg_receive        0      0     36


   Segment part sizes:

     Function/Label                  Bytes
     --------------                  -----
     GenericApp_ClusterList             2
     GenericApp_SimpleDesc             12
     GenericApp_epDesc                  6
     GenericApp_TaskID                  1
     GenericApp_TransID                 1
     GenericApp_Init                   52
     GenericApp_ProcessEvent          205
     ??GenericApp_Init?relay            6
     ??GenericApp_ProcessEvent?relay    6
     ?<Constant "">                     3

 
 257 bytes in segment BANKED_CODE
  12 bytes in segment BANK_RELAYS
  17 bytes in segment XDATA_ROM_C
   8 bytes in segment XDATA_Z
 
 269 bytes of CODE  memory
  17 bytes of CONST memory
   8 bytes of XDATA memory

Errors: none
Warnings: none
