///////////////////////////////////////////////////////////////////////////////
//                                                                            /
// IAR C/C++ Compiler V8.10.3.10338/W32 for 8051        12/Dec/2016  14:13:20 /
// Copyright 2004-2011 IAR Systems AB.                                        /
//                                                                            /
//    Core               =  plain                                             /
//    Code model         =  banked                                            /
//    Data model         =  large                                             /
//    Calling convention =  xdata reentrant                                   /
//    Constant location  =  data_rom                                          /
//    Dptr setup         =  1,16                                              /
//    Source file        =  C:\Texas Instruments\ZStack-CC2530-2.5.1a\Project /
//                          s\zstack\Samples\GenericApp-Broadcast-Test\Source /
//                          \EndDevice.c                                      /
//    Command line       =  -f "C:\Texas Instruments\ZStack-CC2530-2.5.1a\Pro /
//                          jects\zstack\Samples\GenericApp-Broadcast-Test\CC /
//                          2530DB\..\..\..\Tools\CC2530DB\f8wEndev.cfg"      /
//                          (-DCPU32MHZ -DROOT=__near_func                    /
//                          -DMAC_CFG_TX_DATA_MAX=3 -DMAC_CFG_TX_MAX=6        /
//                          -DMAC_CFG_RX_MAX=3) -f "C:\Texas                  /
//                          Instruments\ZStack-CC2530-2.5.1a\Projects\zstack\ /
//                          Samples\GenericApp-Broadcast-Test\CC2530DB\..\..\ /
//                          ..\Tools\CC2530DB\f8wConfig.cfg" (-DZIGBEEPRO     /
//                          -DSECURE=0 -DZG_SECURE_DYNAMIC=0 -DREFLECTOR      /
//                          -DDEFAULT_CHANLIST=0x00000800                     /
//                          -DZDAPP_CONFIG_PAN_ID=0xFFF1                      /
//                          -DNWK_START_DELAY=100 -DEXTENDED_JOINING_RANDOM_M /
//                          ASK=0x007F -DBEACON_REQUEST_DELAY=100             /
//                          -DBEACON_REQ_DELAY_MASK=0x00FF                    /
//                          -DLINK_STATUS_JITTER_MASK=0x007F                  /
//                          -DROUTE_EXPIRY_TIME=30 -DAPSC_ACK_WAIT_DURATION_P /
//                          OLLED=3000 -DNWK_INDIRECT_MSG_TIMEOUT=7           /
//                          -DMAX_RREQ_ENTRIES=8 -DAPSC_MAX_FRAME_RETRIES=3   /
//                          -DNWK_MAX_DATA_RETRIES=2                          /
//                          -DMAX_POLL_FAILURE_RETRIES=2 -DMAX_BCAST=9        /
//                          -DAPS_MAX_GROUPS=16 -DMAX_RTG_ENTRIES=40          /
//                          -DNWK_MAX_BINDING_ENTRIES=4                       /
//                          -DMAX_BINDING_CLUSTER_IDS=4                       /
//                          "-DDEFAULT_KEY={0x01, 0x03, 0x05, 0x07, 0x09,     /
//                          0x0B, 0x0D, 0x0F, 0x00, 0x02, 0x04, 0x06, 0x08,   /
//                          0x0A, 0x0C, 0x0D}" -DMAC_MAX_FRAME_SIZE=116       /
//                          -DZDNWKMGR_MIN_TRANSMISSIONS=20 "-DCONST=const    /
//                          __code" -DGENERIC=__generic                       /
//                          -DRFD_RCVC_ALWAYS_ON=FALSE -DPOLL_RATE=1000       /
//                          -DQUEUED_POLL_RATE=100 -DRESPONSE_POLL_RATE=100)  /
//                          -DREJOIN_POLL_RATE=440 "C:\Texas                  /
//                          Instruments\ZStack-CC2530-2.5.1a\Projects\zstack\ /
//                          Samples\GenericApp-Broadcast-Test\Source\EndDevic /
//                          e.c" -D NWK_AUTO_POLL -D ZTOOL_P1 -D MT_TASK -D   /
//                          MT_SYS_FUNC -D MT_ZDO_FUNC -D                     /
//                          LCD_SUPPORTED=DEBUG -D xPOWER_SAVING -lC          /
//                          "C:\Texas Instruments\ZStack-CC2530-2.5.1a\Projec /
//                          ts\zstack\Samples\GenericApp-Broadcast-Test\CC253 /
//                          0DB\EndDeviceEB\List\" -lA "C:\Texas              /
//                          Instruments\ZStack-CC2530-2.5.1a\Projects\zstack\ /
//                          Samples\GenericApp-Broadcast-Test\CC2530DB\EndDev /
//                          iceEB\List\" --diag_suppress Pe001,Pa010 -o       /
//                          "C:\Texas Instruments\ZStack-CC2530-2.5.1a\Projec /
//                          ts\zstack\Samples\GenericApp-Broadcast-Test\CC253 /
//                          0DB\EndDeviceEB\Obj\" -e --no_code_motion         /
//                          --debug --core=plain --dptr=16,1                  /
//                          --data_model=large --code_model=banked            /
//                          --calling_convention=xdata_reentrant              /
//                          --place_constants=data_rom --nr_virtual_regs 16   /
//                          -I "C:\Texas Instruments\ZStack-CC2530-2.5.1a\Pro /
//                          jects\zstack\Samples\GenericApp-Broadcast-Test\CC /
//                          2530DB\" -I "C:\Texas Instruments\ZStack-CC2530-2 /
//                          .5.1a\Projects\zstack\Samples\GenericApp-Broadcas /
//                          t-Test\CC2530DB\..\Source\" -I "C:\Texas          /
//                          Instruments\ZStack-CC2530-2.5.1a\Projects\zstack\ /
//                          Samples\GenericApp-Broadcast-Test\CC2530DB\..\..\ /
//                          ..\ZMain\TI2530DB\" -I "C:\Texas                  /
//                          Instruments\ZStack-CC2530-2.5.1a\Projects\zstack\ /
//                          Samples\GenericApp-Broadcast-Test\CC2530DB\..\..\ /
//                          ..\..\..\Components\hal\include\" -I "C:\Texas    /
//                          Instruments\ZStack-CC2530-2.5.1a\Projects\zstack\ /
//                          Samples\GenericApp-Broadcast-Test\CC2530DB\..\..\ /
//                          ..\..\..\Components\hal\target\CC2530EB\" -I      /
//                          "C:\Texas Instruments\ZStack-CC2530-2.5.1a\Projec /
//                          ts\zstack\Samples\GenericApp-Broadcast-Test\CC253 /
//                          0DB\..\..\..\..\..\Components\mac\include\" -I    /
//                          "C:\Texas Instruments\ZStack-CC2530-2.5.1a\Projec /
//                          ts\zstack\Samples\GenericApp-Broadcast-Test\CC253 /
//                          0DB\..\..\..\..\..\Components\mac\high_level\"    /
//                          -I "C:\Texas Instruments\ZStack-CC2530-2.5.1a\Pro /
//                          jects\zstack\Samples\GenericApp-Broadcast-Test\CC /
//                          2530DB\..\..\..\..\..\Components\mac\low_level\sr /
//                          f04\" -I "C:\Texas Instruments\ZStack-CC2530-2.5. /
//                          1a\Projects\zstack\Samples\GenericApp-Broadcast-T /
//                          est\CC2530DB\..\..\..\..\..\Components\mac\low_le /
//                          vel\srf04\single_chip\" -I "C:\Texas              /
//                          Instruments\ZStack-CC2530-2.5.1a\Projects\zstack\ /
//                          Samples\GenericApp-Broadcast-Test\CC2530DB\..\..\ /
//                          ..\..\..\Components\mt\" -I "C:\Texas             /
//                          Instruments\ZStack-CC2530-2.5.1a\Projects\zstack\ /
//                          Samples\GenericApp-Broadcast-Test\CC2530DB\..\..\ /
//                          ..\..\..\Components\osal\include\" -I "C:\Texas   /
//                          Instruments\ZStack-CC2530-2.5.1a\Projects\zstack\ /
//                          Samples\GenericApp-Broadcast-Test\CC2530DB\..\..\ /
//                          ..\..\..\Components\services\saddr\" -I           /
//                          "C:\Texas Instruments\ZStack-CC2530-2.5.1a\Projec /
//                          ts\zstack\Samples\GenericApp-Broadcast-Test\CC253 /
//                          0DB\..\..\..\..\..\Components\services\sdata\"    /
//                          -I "C:\Texas Instruments\ZStack-CC2530-2.5.1a\Pro /
//                          jects\zstack\Samples\GenericApp-Broadcast-Test\CC /
//                          2530DB\..\..\..\..\..\Components\stack\af\" -I    /
//                          "C:\Texas Instruments\ZStack-CC2530-2.5.1a\Projec /
//                          ts\zstack\Samples\GenericApp-Broadcast-Test\CC253 /
//                          0DB\..\..\..\..\..\Components\stack\nwk\" -I      /
//                          "C:\Texas Instruments\ZStack-CC2530-2.5.1a\Projec /
//                          ts\zstack\Samples\GenericApp-Broadcast-Test\CC253 /
//                          0DB\..\..\..\..\..\Components\stack\sapi\" -I     /
//                          "C:\Texas Instruments\ZStack-CC2530-2.5.1a\Projec /
//                          ts\zstack\Samples\GenericApp-Broadcast-Test\CC253 /
//                          0DB\..\..\..\..\..\Components\stack\sec\" -I      /
//                          "C:\Texas Instruments\ZStack-CC2530-2.5.1a\Projec /
//                          ts\zstack\Samples\GenericApp-Broadcast-Test\CC253 /
//                          0DB\..\..\..\..\..\Components\stack\sys\" -I      /
//                          "C:\Texas Instruments\ZStack-CC2530-2.5.1a\Projec /
//                          ts\zstack\Samples\GenericApp-Broadcast-Test\CC253 /
//                          0DB\..\..\..\..\..\Components\stack\zdo\" -I      /
//                          "C:\Texas Instruments\ZStack-CC2530-2.5.1a\Projec /
//                          ts\zstack\Samples\GenericApp-Broadcast-Test\CC253 /
//                          0DB\..\..\..\..\..\Components\zmac\" -I           /
//                          "C:\Texas Instruments\ZStack-CC2530-2.5.1a\Projec /
//                          ts\zstack\Samples\GenericApp-Broadcast-Test\CC253 /
//                          0DB\..\..\..\..\..\Components\zmac\f8w\" -Ohz     /
//                          --require_prototypes                              /
//    List file          =  C:\Texas Instruments\ZStack-CC2530-2.5.1a\Project /
//                          s\zstack\Samples\GenericApp-Broadcast-Test\CC2530 /
//                          DB\EndDeviceEB\List\EndDevice.s51                 /
//                                                                            /
//                                                                            /
///////////////////////////////////////////////////////////////////////////////

        NAME EndDevice

        RTMODEL "__SystemLibrary", "CLib"
        RTMODEL "__calling_convention", "xdata_reentrant"
        RTMODEL "__code_model", "banked"
        RTMODEL "__core", "plain"
        RTMODEL "__data_model", "large"
        RTMODEL "__dptr_size", "16"
        RTMODEL "__extended_stack", "disabled"
        RTMODEL "__location_for_constants", "data"
        RTMODEL "__number_of_dptrs", "1"
        RTMODEL "__rt_version", "1"

        RSEG DOVERLAY:DATA:NOROOT(0)
        RSEG IOVERLAY:IDATA:NOROOT(0)
        RSEG ISTACK:IDATA:NOROOT(0)
        RSEG PSTACK:XDATA:NOROOT(0)
        RSEG XSTACK:XDATA:NOROOT(0)

        EXTERN ?ALLOC_XSTACK8
        EXTERN ?BANKED_ENTER_XDATA
        EXTERN ?BANKED_LEAVE_XDATA
        EXTERN ?BDISPATCH
        EXTERN ?DEALLOC_XSTACK8
        EXTERN ?MOVE_LONG8_XDATA_XDATA
        EXTERN ?PUSH_XSTACK_I_THREE
        EXTERN ?V0
        EXTERN ?XSP
        EXTERN ?XSTACK_DISP0_8
        EXTERN __INIT_XDATA_Z

        PUBLIC ??GenericApp_Init?relay
        FUNCTION ??GenericApp_Init?relay,0203H
        FUNCTION ??GenericApp_MessageMSGCB?relay,0203H
        PUBLIC ??GenericApp_ProcessEvent?relay
        FUNCTION ??GenericApp_ProcessEvent?relay,0203H
        PUBLIC GenericApp_ClusterList
        PUBLIC GenericApp_Init
        FUNCTION GenericApp_Init,021203H
        ARGFRAME XSTACK, 0, STACK
        LOCFRAME XSTACK, 9, STACK
        FUNCTION GenericApp_MessageMSGCB,021203H
        ARGFRAME XSTACK, 12, STACK
        ARGFRAME IOVERLAY, 0, STATIC
        ARGFRAME DOVERLAY, 0, STATIC
        LOCFRAME ISTACK, 2, STACK
        LOCFRAME XSTACK, 64, STACK
        PUBLIC GenericApp_NwkState
        PUBLIC GenericApp_ProcessEvent
        FUNCTION GenericApp_ProcessEvent,021203H
        ARGFRAME XSTACK, 0, STACK
        LOCFRAME XSTACK, 12, STACK
        PUBLIC GenericApp_SimpleDesc
        PUBLIC GenericApp_TaskID
        PUBLIC GenericApp_epDesc
        
        CFI Names cfiNames0
        CFI StackFrame CFA_SP SP IDATA
        CFI StackFrame CFA_PSP16 PSP16 XDATA
        CFI StackFrame CFA_XSP16 XSP16 XDATA
        CFI StaticOverlayFrame CFA_IOVERLAY IOVERLAY
        CFI StaticOverlayFrame CFA_DOVERLAY DOVERLAY
        CFI Resource `PSW.CY`:1, `B.BR0`:1, `B.BR1`:1, `B.BR2`:1, `B.BR3`:1
        CFI Resource `B.BR4`:1, `B.BR5`:1, `B.BR6`:1, `B.BR7`:1, `VB.BR8`:1
        CFI Resource `VB.BR9`:1, `VB.BR10`:1, `VB.BR11`:1, `VB.BR12`:1
        CFI Resource `VB.BR13`:1, `VB.BR14`:1, `VB.BR15`:1, VB:8, B:8, A:8
        CFI Resource PSW:8, DPL0:8, DPH0:8, R0:8, R1:8, R2:8, R3:8, R4:8, R5:8
        CFI Resource R6:8, R7:8, V0:8, V1:8, V2:8, V3:8, V4:8, V5:8, V6:8, V7:8
        CFI Resource V8:8, V9:8, V10:8, V11:8, V12:8, V13:8, V14:8, V15:8, SP:8
        CFI Resource PSPH:8, PSPL:8, PSP16:16, XSPH:8, XSPL:8, XSP16:16
        CFI VirtualResource ?RET:24
        CFI Resource ?BRET_EXT:8
        CFI VirtualResource ?RET_HIGH:8, ?RET_LOW:8
        CFI ResourceParts PSP16 PSPH, PSPL
        CFI ResourceParts XSP16 XSPH, XSPL
        CFI ResourceParts ?RET ?BRET_EXT, ?RET_HIGH, ?RET_LOW
        CFI EndNames cfiNames0
        
        CFI Common cfiCommon0 Using cfiNames0
        CFI CodeAlign 1
        CFI DataAlign -1
        CFI ReturnAddress ?RET CODE
        CFI CFA_DOVERLAY Used
        CFI CFA_IOVERLAY Used
        CFI CFA_SP SP+-3
        CFI CFA_PSP16 PSP16+0
        CFI CFA_XSP16 XSP16+0
        CFI `PSW.CY` SameValue
        CFI `B.BR0` SameValue
        CFI `B.BR1` SameValue
        CFI `B.BR2` SameValue
        CFI `B.BR3` SameValue
        CFI `B.BR4` SameValue
        CFI `B.BR5` SameValue
        CFI `B.BR6` SameValue
        CFI `B.BR7` SameValue
        CFI `VB.BR8` SameValue
        CFI `VB.BR9` SameValue
        CFI `VB.BR10` SameValue
        CFI `VB.BR11` SameValue
        CFI `VB.BR12` SameValue
        CFI `VB.BR13` SameValue
        CFI `VB.BR14` SameValue
        CFI `VB.BR15` SameValue
        CFI VB SameValue
        CFI B Undefined
        CFI A Undefined
        CFI PSW SameValue
        CFI DPL0 SameValue
        CFI DPH0 SameValue
        CFI R0 Undefined
        CFI R1 Undefined
        CFI R2 Undefined
        CFI R3 Undefined
        CFI R4 Undefined
        CFI R5 Undefined
        CFI R6 SameValue
        CFI R7 SameValue
        CFI V0 SameValue
        CFI V1 SameValue
        CFI V2 SameValue
        CFI V3 SameValue
        CFI V4 SameValue
        CFI V5 SameValue
        CFI V6 SameValue
        CFI V7 SameValue
        CFI V8 SameValue
        CFI V9 SameValue
        CFI V10 SameValue
        CFI V11 SameValue
        CFI V12 SameValue
        CFI V13 SameValue
        CFI V14 SameValue
        CFI V15 SameValue
        CFI PSPH Undefined
        CFI PSPL Undefined
        CFI XSPH Undefined
        CFI XSPL Undefined
        CFI ?RET Concat
        CFI ?BRET_EXT Frame(CFA_SP, 3)
        CFI ?RET_HIGH Frame(CFA_SP, 2)
        CFI ?RET_LOW Frame(CFA_SP, 1)
        CFI EndCommon cfiCommon0
        
afRegister          SYMBOL "afRegister"
osal_msg_receive    SYMBOL "osal_msg_receive"
osal_msg_deallocate SYMBOL "osal_msg_deallocate"
osal_memcpy         SYMBOL "osal_memcpy"
osal_memcmp         SYMBOL "osal_memcmp"
HalLedBlink         SYMBOL "HalLedBlink"
??HalLedBlink?relay SYMBOL "?relay", HalLedBlink
??afRegister?relay  SYMBOL "?relay", afRegister
??osal_memcmp?relay SYMBOL "?relay", osal_memcmp
??osal_memcpy?relay SYMBOL "?relay", osal_memcpy
??osal_msg_deallocate?relay SYMBOL "?relay", osal_msg_deallocate
??osal_msg_receive?relay SYMBOL "?relay", osal_msg_receive
GenericApp_Init     SYMBOL "GenericApp_Init"
??GenericApp_Init?relay SYMBOL "?relay", GenericApp_Init
GenericApp_ProcessEvent SYMBOL "GenericApp_ProcessEvent"
??GenericApp_ProcessEvent?relay SYMBOL "?relay", GenericApp_ProcessEvent

        EXTERN afRegister
        FUNCTION afRegister,0202H
        ARGFRAME ISTACK, 0, STACK
        ARGFRAME PSTACK, 0, STACK
        ARGFRAME XSTACK, 9, STACK
        ARGFRAME IOVERLAY, 0, STATIC
        ARGFRAME DOVERLAY, 0, STATIC
        EXTERN osal_msg_receive
        FUNCTION osal_msg_receive,0202H
        ARGFRAME ISTACK, 0, STACK
        ARGFRAME PSTACK, 0, STACK
        ARGFRAME XSTACK, 12, STACK
        ARGFRAME IOVERLAY, 0, STATIC
        ARGFRAME DOVERLAY, 0, STATIC
        EXTERN osal_msg_deallocate
        FUNCTION osal_msg_deallocate,0202H
        ARGFRAME ISTACK, 0, STACK
        ARGFRAME PSTACK, 0, STACK
        ARGFRAME XSTACK, 12, STACK
        ARGFRAME IOVERLAY, 0, STATIC
        ARGFRAME DOVERLAY, 0, STATIC
        EXTERN osal_memcpy
        FUNCTION osal_memcpy,0202H
        ARGFRAME ISTACK, 0, STACK
        ARGFRAME PSTACK, 0, STACK
        ARGFRAME XSTACK, 64, STACK
        ARGFRAME IOVERLAY, 0, STATIC
        ARGFRAME DOVERLAY, 0, STATIC
        EXTERN osal_memcmp
        FUNCTION osal_memcmp,0202H
        ARGFRAME ISTACK, 0, STACK
        ARGFRAME PSTACK, 0, STACK
        ARGFRAME XSTACK, 64, STACK
        ARGFRAME IOVERLAY, 0, STATIC
        ARGFRAME DOVERLAY, 0, STATIC
        EXTERN HalLedBlink
        FUNCTION HalLedBlink,0202H
        ARGFRAME ISTACK, 0, STACK
        ARGFRAME PSTACK, 0, STACK
        ARGFRAME XSTACK, 61, STACK
        ARGFRAME IOVERLAY, 0, STATIC
        ARGFRAME DOVERLAY, 0, STATIC
        EXTERN ??HalLedBlink?relay
        FUNCTION ??HalLedBlink?relay,00H
        EXTERN ??afRegister?relay
        FUNCTION ??afRegister?relay,00H
        EXTERN ??osal_memcmp?relay
        FUNCTION ??osal_memcmp?relay,00H
        EXTERN ??osal_memcpy?relay
        FUNCTION ??osal_memcpy?relay,00H
        EXTERN ??osal_msg_deallocate?relay
        FUNCTION ??osal_msg_deallocate?relay,00H
        EXTERN ??osal_msg_receive?relay
        FUNCTION ??osal_msg_receive?relay,00H

// C:\Texas Instruments\ZStack-CC2530-2.5.1a\Projects\zstack\Samples\GenericApp-Broadcast-Test\Source\EndDevice.c
//    1 
//    2 /*********************************************************************
//    3  * INCLUDES
//    4  */
//    5 #include "OSAL.h"
//    6 #include "AF.h"
//    7 #include "ZDApp.h"
//    8 #include "ZDObject.h"
//    9 #include "ZDProfile.h"
//   10 
//   11 #include "Coordinator.h"
//   12 #include "DebugTrace.h"
//   13 
//   14 #if !defined( WIN32 )
//   15   #include "OnBoard.h"
//   16 #endif
//   17 
//   18 /* HAL */
//   19 #include "hal_lcd.h"
//   20 #include "hal_led.h"
//   21 #include "hal_key.h"
//   22 #include "hal_uart.h"
//   23 
//   24 
//   25 /*********************************************************************
//   26  * GLOBAL VARIABLES
//   27  */
//   28 // 群集列表

        RSEG XDATA_ROM_C:CONST:REORDER:NOROOT(0)
        DATA16
//   29 const cId_t GenericApp_ClusterList[GENERICAPP_MAX_CLUSTERS] =
GenericApp_ClusterList:
        DW 1
//   30 {
//   31   GENERICAPP_CLUSTERID
//   32 };
//   33 
//   34 // 简单描述符：描述端点

        RSEG XDATA_ROM_C:CONST:REORDER:NOROOT(0)
        DATA8
//   35 const SimpleDescriptionFormat_t GenericApp_SimpleDesc =
GenericApp_SimpleDesc:
        DB 10
        DATA16
        DW 3844
        DW 1
        DATA8
        DB 0
        DB 0
        DATA16
        DW 0H
        DATA8
        DB 1
        DATA16
        DW GenericApp_ClusterList
//   36 {
//   37   GENERICAPP_ENDPOINT,              //  int Endpoint;
//   38   GENERICAPP_PROFID,                //  uint16 AppProfId[2];
//   39   GENERICAPP_DEVICEID,              //  uint16 AppDeviceId[2];
//   40   GENERICAPP_DEVICE_VERSION,        //  int   AppDevVer:4;
//   41   GENERICAPP_FLAGS,                 //  int   AppFlags:4;
//   42   0,          //  byte  AppNumInClusters;
//   43   (cId_t *)NULL,  //  byte *pAppInClusterList;
//   44   GENERICAPP_MAX_CLUSTERS,          //  byte  AppNumInClusters;
//   45   (cId_t *)GenericApp_ClusterList   //  byte *pAppInClusterList;
//   46 };
//   47 
//   48 // 端点描述符

        RSEG XDATA_Z:XDATA:NOROOT(0)
        DATA8
//   49 endPointDesc_t GenericApp_epDesc;
GenericApp_epDesc:
        DS 6
        REQUIRE __INIT_XDATA_Z
//   50 
//   51 
//   52 /*********************************************************************
//   53  * LOCAL VARIABLES
//   54  */
//   55 // 任务ID，优先级

        RSEG XDATA_Z:XDATA:NOROOT(0)
        DATA8
//   56 byte GenericApp_TaskID; 
GenericApp_TaskID:
        DS 1
        REQUIRE __INIT_XDATA_Z
//   57 
//   58 // 设备状态

        RSEG XDATA_Z:XDATA:NOROOT(0)
        DATA8
//   59 devStates_t GenericApp_NwkState;
GenericApp_NwkState:
        DS 1
        REQUIRE __INIT_XDATA_Z
//   60 
//   61 
//   62 /*********************************************************************
//   63  * LOCAL FUNCTIONS
//   64  */
//   65 // 接收到消息后，进行消息处理
//   66 static void GenericApp_MessageMSGCB( afIncomingMSGPacket_t *pckt );
//   67 
//   68 /*********************************************************************
//   69  * @fn      GenericApp_Init
//   70  *
//   71  * @brief   Initialization function for the Generic App Task.
//   72  *          This is called during initialization and should contain
//   73  *          any application specific initialization (ie. hardware
//   74  *          initialization/setup, table initialization, power up
//   75  *          notificaiton ... ).
//   76  *
//   77  * @param   task_id - the ID assigned by OSAL.  This ID should be
//   78  *                    used to send messages and set timers.
//   79  *
//   80  * @return  none
//   81  */

        RSEG BANKED_CODE:CODE:NOROOT(0)
//   82 void GenericApp_Init( uint8 task_id )
GenericApp_Init:
        CFI Block cfiBlock0 Using cfiCommon0
        CFI Function GenericApp_Init
        CODE
//   83 {
        FUNCALL GenericApp_Init, afRegister
        LOCFRAME ISTACK, 0, STACK
        LOCFRAME PSTACK, 0, STACK
        LOCFRAME XSTACK, 9, STACK
        LOCFRAME IOVERLAY, 0, STATIC
        LOCFRAME DOVERLAY, 0, STATIC
        ARGFRAME ISTACK, 0, STACK
        ARGFRAME PSTACK, 0, STACK
        ARGFRAME XSTACK, 9, STACK
        ARGFRAME IOVERLAY, 0, STATIC
        ARGFRAME DOVERLAY, 0, STATIC
        MOV     A,#-0x9
        LCALL   ?BANKED_ENTER_XDATA
        CFI DPH0 load(1, XDATA, add(CFA_XSP16, literal(-1)))
        CFI DPL0 load(1, XDATA, add(CFA_XSP16, literal(-2)))
        CFI ?BRET_EXT load(1, XDATA, add(CFA_XSP16, literal(-3)))
        CFI ?RET_HIGH load(1, XDATA, add(CFA_XSP16, literal(-4)))
        CFI ?RET_LOW load(1, XDATA, add(CFA_XSP16, literal(-5)))
        CFI R7 load(1, XDATA, add(CFA_XSP16, literal(-6)))
        CFI V0 load(1, XDATA, add(CFA_XSP16, literal(-7)))
        CFI VB load(1, XDATA, add(CFA_XSP16, literal(-8)))
        CFI R6 load(1, XDATA, add(CFA_XSP16, literal(-9)))
        CFI CFA_SP SP+0
        CFI CFA_XSP16 add(XSP16, 9)
        ; Saved register size: 9
        ; Auto size: 0
        MOV     A,R1
//   84   GenericApp_TaskID = task_id;
        MOV     DPTR,#GenericApp_TaskID
        MOVX    @DPTR,A
//   85   
//   86   GenericApp_NwkState = DEV_INIT;  // 设备未连接任何网络
        MOV     DPTR,#GenericApp_NwkState
        MOV     A,#0x1
        MOVX    @DPTR,A
//   87 
//   88   // Fill out the endpoint description.
//   89   GenericApp_epDesc.endPoint = GENERICAPP_ENDPOINT;
        MOV     DPTR,#GenericApp_epDesc
        MOV     A,#0xa
        MOVX    @DPTR,A
//   90   GenericApp_epDesc.task_id = &GenericApp_TaskID;
        INC     DPTR
        MOV     A,#GenericApp_TaskID & 0xff
        MOVX    @DPTR,A
        INC     DPTR
        MOV     A,#(GenericApp_TaskID >> 8) & 0xff
        MOVX    @DPTR,A
//   91   GenericApp_epDesc.simpleDesc
//   92             = (SimpleDescriptionFormat_t *)&GenericApp_SimpleDesc;
        INC     DPTR
        MOV     A,#GenericApp_SimpleDesc & 0xff
        MOVX    @DPTR,A
        INC     DPTR
        MOV     A,#(GenericApp_SimpleDesc >> 8) & 0xff
        MOVX    @DPTR,A
//   93   GenericApp_epDesc.latencyReq = noLatencyReqs;
        INC     DPTR
        CLR     A
        MOVX    @DPTR,A
//   94 
//   95   // Register the endpoint description with the AF
//   96   afRegister( &GenericApp_epDesc );  //　没有注册不能使用OSAL提供的服务
        ; Setup parameters for call to function afRegister
        MOV     R2,#GenericApp_epDesc & 0xff
        MOV     R3,#(GenericApp_epDesc >> 8) & 0xff
        LCALL   ??afRegister?relay
//   97 
//   98 }
        MOV     R7,#0x1
        LJMP    ?BANKED_LEAVE_XDATA
        CFI EndBlock cfiBlock0
//   99 
//  100 /*********************************************************************
//  101  * @fn      GenericApp_ProcessEvent
//  102  *
//  103  * @brief   Generic Application Task event processor.  This function
//  104  *          is called to process all events for the task.  Events
//  105  *          include timers, messages and any other user defined events.
//  106  *
//  107  * @param   task_id  - The OSAL assigned task ID.
//  108  * @param   events - events to process.  This is a bit map and can
//  109  *                   contain more than one event.
//  110  *
//  111  * @return  none
//  112  */

        RSEG BANKED_CODE:CODE:NOROOT(0)
//  113 uint16 GenericApp_ProcessEvent( uint8 task_id, uint16 events )
GenericApp_ProcessEvent:
        CFI Block cfiBlock1 Using cfiCommon0
        CFI Function GenericApp_ProcessEvent
        CODE
//  114 {
        FUNCALL GenericApp_ProcessEvent, osal_msg_receive
        LOCFRAME ISTACK, 0, STACK
        LOCFRAME PSTACK, 0, STACK
        LOCFRAME XSTACK, 12, STACK
        LOCFRAME IOVERLAY, 0, STATIC
        LOCFRAME DOVERLAY, 0, STATIC
        ARGFRAME ISTACK, 0, STACK
        ARGFRAME PSTACK, 0, STACK
        ARGFRAME XSTACK, 12, STACK
        ARGFRAME IOVERLAY, 0, STATIC
        ARGFRAME DOVERLAY, 0, STATIC
        FUNCALL GenericApp_ProcessEvent, GenericApp_MessageMSGCB
        LOCFRAME ISTACK, 0, STACK
        LOCFRAME PSTACK, 0, STACK
        LOCFRAME XSTACK, 12, STACK
        LOCFRAME IOVERLAY, 0, STATIC
        LOCFRAME DOVERLAY, 0, STATIC
        ARGFRAME ISTACK, 0, STACK
        ARGFRAME PSTACK, 0, STACK
        ARGFRAME XSTACK, 12, STACK
        ARGFRAME IOVERLAY, 0, STATIC
        ARGFRAME DOVERLAY, 0, STATIC
        FUNCALL GenericApp_ProcessEvent, osal_msg_deallocate
        LOCFRAME ISTACK, 0, STACK
        LOCFRAME PSTACK, 0, STACK
        LOCFRAME XSTACK, 12, STACK
        LOCFRAME IOVERLAY, 0, STATIC
        LOCFRAME DOVERLAY, 0, STATIC
        ARGFRAME ISTACK, 0, STACK
        ARGFRAME PSTACK, 0, STACK
        ARGFRAME XSTACK, 12, STACK
        ARGFRAME IOVERLAY, 0, STATIC
        ARGFRAME DOVERLAY, 0, STATIC
        FUNCALL GenericApp_ProcessEvent, osal_msg_receive
        LOCFRAME ISTACK, 0, STACK
        LOCFRAME PSTACK, 0, STACK
        LOCFRAME XSTACK, 12, STACK
        LOCFRAME IOVERLAY, 0, STATIC
        LOCFRAME DOVERLAY, 0, STATIC
        ARGFRAME ISTACK, 0, STACK
        ARGFRAME PSTACK, 0, STACK
        ARGFRAME XSTACK, 12, STACK
        ARGFRAME IOVERLAY, 0, STATIC
        ARGFRAME DOVERLAY, 0, STATIC
        MOV     A,#-0xc
        LCALL   ?BANKED_ENTER_XDATA
        CFI DPH0 load(1, XDATA, add(CFA_XSP16, literal(-1)))
        CFI DPL0 load(1, XDATA, add(CFA_XSP16, literal(-2)))
        CFI ?BRET_EXT load(1, XDATA, add(CFA_XSP16, literal(-3)))
        CFI ?RET_HIGH load(1, XDATA, add(CFA_XSP16, literal(-4)))
        CFI ?RET_LOW load(1, XDATA, add(CFA_XSP16, literal(-5)))
        CFI R7 load(1, XDATA, add(CFA_XSP16, literal(-6)))
        CFI V3 load(1, XDATA, add(CFA_XSP16, literal(-7)))
        CFI V2 load(1, XDATA, add(CFA_XSP16, literal(-8)))
        CFI V1 load(1, XDATA, add(CFA_XSP16, literal(-9)))
        CFI V0 load(1, XDATA, add(CFA_XSP16, literal(-10)))
        CFI VB load(1, XDATA, add(CFA_XSP16, literal(-11)))
        CFI R6 load(1, XDATA, add(CFA_XSP16, literal(-12)))
        CFI CFA_SP SP+0
        CFI CFA_XSP16 add(XSP16, 12)
        ; Saved register size: 12
        ; Auto size: 0
        MOV     ?V0 + 0,R2
        MOV     ?V0 + 1,R3
//  115   afIncomingMSGPacket_t *MSGpkt;  // 消息包指针
//  116   
//  117   if ( events & SYS_EVENT_MSG )   // 判断是否是系统事件
        MOV     A,R3
        ANL     A,#0x80
        JZ      ??GenericApp_ProcessEvent_0
//  118   {
//  119     MSGpkt = (afIncomingMSGPacket_t *)osal_msg_receive( GenericApp_TaskID );
        ; Setup parameters for call to function osal_msg_receive
        SJMP    ??GenericApp_ProcessEvent_1
//  120     while ( MSGpkt )
//  121     {
//  122       switch ( MSGpkt->hdr.event )
??GenericApp_ProcessEvent_2:
        MOV     DPL,R6
        MOV     DPH,R7
        MOVX    A,@DPTR
        XRL     A,#0x1a
        JNZ     ??GenericApp_ProcessEvent_3
//  123       {  
//  124         case AF_INCOMING_MSG_CMD:    //接收到无线数据
//  125           GenericApp_MessageMSGCB(MSGpkt);  // 处理消息
        ; Setup parameters for call to function GenericApp_MessageMSGCB
        MOV     A,R6
        MOV     R2,A
        MOV     A,R7
        MOV     R3,A
        LCALL   ??GenericApp_MessageMSGCB?relay
//  126           break;
//  127         default:
//  128           break;
//  129       }
//  130 
//  131       // Release the memory
//  132       osal_msg_deallocate( (uint8 *)MSGpkt );  // 释放消息空间，防止内存泄漏
??GenericApp_ProcessEvent_3:
        ; Setup parameters for call to function osal_msg_deallocate
        MOV     A,R6
        MOV     R2,A
        MOV     A,R7
        MOV     R3,A
        LCALL   ??osal_msg_deallocate?relay
//  133 
//  134       // Next
//  135       MSGpkt = (afIncomingMSGPacket_t *)osal_msg_receive( GenericApp_TaskID );
        ; Setup parameters for call to function osal_msg_receive
??GenericApp_ProcessEvent_1:
        MOV     DPTR,#GenericApp_TaskID
        MOVX    A,@DPTR
        MOV     R1,A
        LCALL   ??osal_msg_receive?relay
        MOV     ?V0 + 2,R2
        MOV     ?V0 + 3,R3
        MOV     R6,?V0 + 2
        MOV     R7,?V0 + 3
//  136     }
        MOV     A,R6
        ORL     A,R7
        JNZ     ??GenericApp_ProcessEvent_2
//  137 
//  138     // return unprocessed events
//  139     return (events ^ SYS_EVENT_MSG);   // 返回其他未处理的消息
        MOV     R2,?V0 + 0
        MOV     A,?V0 + 1
        XRL     A,#0x80
        MOV     R3,A
        SJMP    ??GenericApp_ProcessEvent_4
//  140   }
//  141   // Discard unknown events
//  142   return 0;
??GenericApp_ProcessEvent_0:
        MOV     R2,#0x0
        MOV     R3,#0x0
??GenericApp_ProcessEvent_4:
        MOV     R7,#0x4
        LJMP    ?BANKED_LEAVE_XDATA
        CFI EndBlock cfiBlock1
//  143 }
//  144 
//  145 
//  146 

        RSEG BANKED_CODE:CODE:NOROOT(0)
//  147 static void GenericApp_MessageMSGCB( afIncomingMSGPacket_t *pckt )
GenericApp_MessageMSGCB:
        CFI Block cfiBlock2 Using cfiCommon0
        CFI Function GenericApp_MessageMSGCB
        CODE
//  148 {
        FUNCALL GenericApp_MessageMSGCB, osal_memcpy
        LOCFRAME ISTACK, 0, STACK
        LOCFRAME PSTACK, 0, STACK
        LOCFRAME XSTACK, 64, STACK
        LOCFRAME IOVERLAY, 0, STATIC
        LOCFRAME DOVERLAY, 0, STATIC
        ARGFRAME ISTACK, 0, STACK
        ARGFRAME PSTACK, 0, STACK
        ARGFRAME XSTACK, 64, STACK
        ARGFRAME IOVERLAY, 0, STATIC
        ARGFRAME DOVERLAY, 0, STATIC
        FUNCALL GenericApp_MessageMSGCB, osal_memcmp
        LOCFRAME ISTACK, 0, STACK
        LOCFRAME PSTACK, 0, STACK
        LOCFRAME XSTACK, 64, STACK
        LOCFRAME IOVERLAY, 0, STATIC
        LOCFRAME DOVERLAY, 0, STATIC
        ARGFRAME ISTACK, 0, STACK
        ARGFRAME PSTACK, 0, STACK
        ARGFRAME XSTACK, 64, STACK
        ARGFRAME IOVERLAY, 0, STATIC
        ARGFRAME DOVERLAY, 0, STATIC
        FUNCALL GenericApp_MessageMSGCB, HalLedBlink
        LOCFRAME ISTACK, 0, STACK
        LOCFRAME PSTACK, 0, STACK
        LOCFRAME XSTACK, 61, STACK
        LOCFRAME IOVERLAY, 0, STATIC
        LOCFRAME DOVERLAY, 0, STATIC
        ARGFRAME ISTACK, 0, STACK
        ARGFRAME PSTACK, 0, STACK
        ARGFRAME XSTACK, 61, STACK
        ARGFRAME IOVERLAY, 0, STATIC
        ARGFRAME DOVERLAY, 0, STATIC
        MOV     A,#-0xb
        LCALL   ?BANKED_ENTER_XDATA
        CFI DPH0 load(1, XDATA, add(CFA_XSP16, literal(-1)))
        CFI DPL0 load(1, XDATA, add(CFA_XSP16, literal(-2)))
        CFI ?BRET_EXT load(1, XDATA, add(CFA_XSP16, literal(-3)))
        CFI ?RET_HIGH load(1, XDATA, add(CFA_XSP16, literal(-4)))
        CFI ?RET_LOW load(1, XDATA, add(CFA_XSP16, literal(-5)))
        CFI R7 load(1, XDATA, add(CFA_XSP16, literal(-6)))
        CFI V2 load(1, XDATA, add(CFA_XSP16, literal(-7)))
        CFI V1 load(1, XDATA, add(CFA_XSP16, literal(-8)))
        CFI V0 load(1, XDATA, add(CFA_XSP16, literal(-9)))
        CFI VB load(1, XDATA, add(CFA_XSP16, literal(-10)))
        CFI R6 load(1, XDATA, add(CFA_XSP16, literal(-11)))
        CFI CFA_SP SP+0
        CFI CFA_XSP16 add(XSP16, 11)
        ; Saved register size: 11
        ; Auto size: 50
        MOV     A,#-0x32
        LCALL   ?ALLOC_XSTACK8
        CFI CFA_XSP16 add(XSP16, 61)
//  149   char buf[50] = {0};
        MOV     DPL,?XSP + 0
        MOV     DPH,?XSP + 1
        MOV     R4,DPL
        MOV     R5,DPH
        MOV     DPH,#(`?<Constant {0}>` >> 8) & 0xff
        MOV     DPL,#`?<Constant {0}>` & 0xff
        MOV     A,#0x32
        LCALL   ?MOVE_LONG8_XDATA_XDATA
//  150    switch ( pckt->clusterId )
        MOV     DPL,R2
        MOV     DPH,R3
        INC     DPTR
        INC     DPTR
        INC     DPTR
        INC     DPTR
        MOVX    A,@DPTR
        XRL     A,#0x1
        JNZ     ??GenericApp_MessageMSGCB_0
        INC     DPTR
        MOVX    A,@DPTR
??GenericApp_MessageMSGCB_0:
        JNZ     ??GenericApp_MessageMSGCB_1
//  151   {
//  152     case GENERICAPP_CLUSTERID:  // 判断是否是指定的命令
//  153       osal_memcpy(buf, pckt->cmd.Data, 10);
        ; Setup parameters for call to function osal_memcpy
        MOV     A,R2
        ADD     A,#0x22
        MOV     DPL,A
        MOV     A,R3
        ADDC    A,#0x0
        MOV     DPH,A
        MOVX    A,@DPTR
        MOV     ?V0 + 0,A
        INC     DPTR
        MOVX    A,@DPTR
        MOV     ?V0 + 1,A
        MOV     ?V0 + 2,#0x0
        MOV     R0,#?V0 + 0
        LCALL   ?PUSH_XSTACK_I_THREE
        CFI CFA_XSP16 add(XSP16, 64)
        MOV     R4,#0xa
        MOV     R5,#0x0
        MOV     A,#0x3
        LCALL   ?XSTACK_DISP0_8
        MOV     R2,DPL
        MOV     R3,DPH
        LCALL   ??osal_memcpy?relay
        MOV     A,#0x3
        LCALL   ?DEALLOC_XSTACK8
        CFI CFA_XSP16 add(XSP16, 61)
//  154   
//  155       if (osal_memcmp(buf, "0123456789", 10))
        ; Setup parameters for call to function osal_memcmp
        MOV     ?V0 + 0,#`?<Constant "0123456789">` & 0xff
        MOV     ?V0 + 1,#(`?<Constant "0123456789">` >> 8) & 0xff
        MOV     R0,#?V0 + 0
        LCALL   ?PUSH_XSTACK_I_THREE
        CFI CFA_XSP16 add(XSP16, 64)
        MOV     R4,#0xa
        MOV     R5,#0x0
        MOV     A,#0x3
        LCALL   ?XSTACK_DISP0_8
        MOV     R1,DPL
        MOV     R2,DPH
        MOV     R3,#0x0
        LCALL   ??osal_memcmp?relay
        MOV     A,#0x3
        LCALL   ?DEALLOC_XSTACK8
        CFI CFA_XSP16 add(XSP16, 61)
        MOV     A,R1
        JZ      ??GenericApp_MessageMSGCB_1
//  156       {
//  157         HalLedBlink(HAL_LED_ALL, 5, 50, 200);
        ; Setup parameters for call to function HalLedBlink
        MOV     R4,#-0x38
        MOV     R5,#0x0
        MOV     R3,#0x32
        MOV     R2,#0x5
        MOV     R1,#0xf
        LCALL   ??HalLedBlink?relay
//  158       }
//  159       break;
//  160     default:
//  161       break;
//  162   }
//  163 }
??GenericApp_MessageMSGCB_1:
        MOV     A,#0x32
        LCALL   ?DEALLOC_XSTACK8
        CFI CFA_XSP16 add(XSP16, 11)
        MOV     R7,#0x3
        LJMP    ?BANKED_LEAVE_XDATA
        CFI EndBlock cfiBlock2

        RSEG BANK_RELAYS:CODE:REORDER:NOROOT(0)
??GenericApp_Init?relay:
        LCALL   ?BDISPATCH
        DATA
        DC24    GenericApp_Init

        RSEG BANK_RELAYS:CODE:REORDER:NOROOT(0)
??GenericApp_ProcessEvent?relay:
        LCALL   ?BDISPATCH
        DATA
        DC24    GenericApp_ProcessEvent

        RSEG BANK_RELAYS:CODE:REORDER:NOROOT(0)
??GenericApp_MessageMSGCB?relay:
        LCALL   ?BDISPATCH
        DATA
        DC24    GenericApp_MessageMSGCB

        RSEG XDATA_ROM_C:CONST:REORDER:NOROOT(0)
        DATA8
`?<Constant {0}>`:
        DB 0
        DB 0, 0, 0, 0, 0, 0, 0, 0
        DB 0, 0, 0, 0, 0, 0, 0, 0
        DB 0, 0, 0, 0, 0, 0, 0, 0
        DB 0, 0, 0, 0, 0, 0, 0, 0
        DB 0, 0, 0, 0, 0, 0, 0, 0
        DB 0, 0, 0, 0, 0, 0, 0, 0
        DB 0

        RSEG XDATA_ROM_C:CONST:REORDER:NOROOT(0)
        DATA8
`?<Constant "0123456789">`:
        DB "0123456789"

        END
// 
// 284 bytes in segment BANKED_CODE
//  18 bytes in segment BANK_RELAYS
//  75 bytes in segment XDATA_ROM_C
//   8 bytes in segment XDATA_Z
// 
// 302 bytes of CODE  memory
//  75 bytes of CONST memory
//   8 bytes of XDATA memory
//
//Errors: none
//Warnings: none
