###############################################################################
#                                                                             #
# IAR C/C++ Compiler V8.10.3.10338/W32 for 8051         12/Dec/2016  14:13:20 #
# Copyright 2004-2011 IAR Systems AB.                                         #
#                                                                             #
#    Core               =  plain                                              #
#    Code model         =  banked                                             #
#    Data model         =  large                                              #
#    Calling convention =  xdata reentrant                                    #
#    Constant location  =  data_rom                                           #
#    Dptr setup         =  1,16                                               #
#    Source file        =  C:\Texas Instruments\ZStack-CC2530-2.5.1a\Projects #
#                          \zstack\Samples\GenericApp-Broadcast-Test\Source\E #
#                          ndDevice.c                                         #
#    Command line       =  -f "C:\Texas Instruments\ZStack-CC2530-2.5.1a\Proj #
#                          ects\zstack\Samples\GenericApp-Broadcast-Test\CC25 #
#                          30DB\..\..\..\Tools\CC2530DB\f8wEndev.cfg"         #
#                          (-DCPU32MHZ -DROOT=__near_func                     #
#                          -DMAC_CFG_TX_DATA_MAX=3 -DMAC_CFG_TX_MAX=6         #
#                          -DMAC_CFG_RX_MAX=3) -f "C:\Texas                   #
#                          Instruments\ZStack-CC2530-2.5.1a\Projects\zstack\S #
#                          amples\GenericApp-Broadcast-Test\CC2530DB\..\..\.. #
#                          \Tools\CC2530DB\f8wConfig.cfg" (-DZIGBEEPRO        #
#                          -DSECURE=0 -DZG_SECURE_DYNAMIC=0 -DREFLECTOR       #
#                          -DDEFAULT_CHANLIST=0x00000800                      #
#                          -DZDAPP_CONFIG_PAN_ID=0xFFF1                       #
#                          -DNWK_START_DELAY=100 -DEXTENDED_JOINING_RANDOM_MA #
#                          SK=0x007F -DBEACON_REQUEST_DELAY=100               #
#                          -DBEACON_REQ_DELAY_MASK=0x00FF                     #
#                          -DLINK_STATUS_JITTER_MASK=0x007F                   #
#                          -DROUTE_EXPIRY_TIME=30 -DAPSC_ACK_WAIT_DURATION_PO #
#                          LLED=3000 -DNWK_INDIRECT_MSG_TIMEOUT=7             #
#                          -DMAX_RREQ_ENTRIES=8 -DAPSC_MAX_FRAME_RETRIES=3    #
#                          -DNWK_MAX_DATA_RETRIES=2                           #
#                          -DMAX_POLL_FAILURE_RETRIES=2 -DMAX_BCAST=9         #
#                          -DAPS_MAX_GROUPS=16 -DMAX_RTG_ENTRIES=40           #
#                          -DNWK_MAX_BINDING_ENTRIES=4                        #
#                          -DMAX_BINDING_CLUSTER_IDS=4 "-DDEFAULT_KEY={0x01,  #
#                          0x03, 0x05, 0x07, 0x09, 0x0B, 0x0D, 0x0F, 0x00,    #
#                          0x02, 0x04, 0x06, 0x08, 0x0A, 0x0C, 0x0D}"         #
#                          -DMAC_MAX_FRAME_SIZE=116                           #
#                          -DZDNWKMGR_MIN_TRANSMISSIONS=20 "-DCONST=const     #
#                          __code" -DGENERIC=__generic                        #
#                          -DRFD_RCVC_ALWAYS_ON=FALSE -DPOLL_RATE=1000        #
#                          -DQUEUED_POLL_RATE=100 -DRESPONSE_POLL_RATE=100)   #
#                          -DREJOIN_POLL_RATE=440 "C:\Texas                   #
#                          Instruments\ZStack-CC2530-2.5.1a\Projects\zstack\S #
#                          amples\GenericApp-Broadcast-Test\Source\EndDevice. #
#                          c" -D NWK_AUTO_POLL -D ZTOOL_P1 -D MT_TASK -D      #
#                          MT_SYS_FUNC -D MT_ZDO_FUNC -D LCD_SUPPORTED=DEBUG  #
#                          -D xPOWER_SAVING -lC "C:\Texas                     #
#                          Instruments\ZStack-CC2530-2.5.1a\Projects\zstack\S #
#                          amples\GenericApp-Broadcast-Test\CC2530DB\EndDevic #
#                          eEB\List\" -lA "C:\Texas                           #
#                          Instruments\ZStack-CC2530-2.5.1a\Projects\zstack\S #
#                          amples\GenericApp-Broadcast-Test\CC2530DB\EndDevic #
#                          eEB\List\" --diag_suppress Pe001,Pa010 -o          #
#                          "C:\Texas Instruments\ZStack-CC2530-2.5.1a\Project #
#                          s\zstack\Samples\GenericApp-Broadcast-Test\CC2530D #
#                          B\EndDeviceEB\Obj\" -e --no_code_motion --debug    #
#                          --core=plain --dptr=16,1 --data_model=large        #
#                          --code_model=banked --calling_convention=xdata_ree #
#                          ntrant --place_constants=data_rom                  #
#                          --nr_virtual_regs 16 -I "C:\Texas                  #
#                          Instruments\ZStack-CC2530-2.5.1a\Projects\zstack\S #
#                          amples\GenericApp-Broadcast-Test\CC2530DB\" -I     #
#                          "C:\Texas Instruments\ZStack-CC2530-2.5.1a\Project #
#                          s\zstack\Samples\GenericApp-Broadcast-Test\CC2530D #
#                          B\..\Source\" -I "C:\Texas                         #
#                          Instruments\ZStack-CC2530-2.5.1a\Projects\zstack\S #
#                          amples\GenericApp-Broadcast-Test\CC2530DB\..\..\.. #
#                          \ZMain\TI2530DB\" -I "C:\Texas                     #
#                          Instruments\ZStack-CC2530-2.5.1a\Projects\zstack\S #
#                          amples\GenericApp-Broadcast-Test\CC2530DB\..\..\.. #
#                          \..\..\Components\hal\include\" -I "C:\Texas       #
#                          Instruments\ZStack-CC2530-2.5.1a\Projects\zstack\S #
#                          amples\GenericApp-Broadcast-Test\CC2530DB\..\..\.. #
#                          \..\..\Components\hal\target\CC2530EB\" -I         #
#                          "C:\Texas Instruments\ZStack-CC2530-2.5.1a\Project #
#                          s\zstack\Samples\GenericApp-Broadcast-Test\CC2530D #
#                          B\..\..\..\..\..\Components\mac\include\" -I       #
#                          "C:\Texas Instruments\ZStack-CC2530-2.5.1a\Project #
#                          s\zstack\Samples\GenericApp-Broadcast-Test\CC2530D #
#                          B\..\..\..\..\..\Components\mac\high_level\" -I    #
#                          "C:\Texas Instruments\ZStack-CC2530-2.5.1a\Project #
#                          s\zstack\Samples\GenericApp-Broadcast-Test\CC2530D #
#                          B\..\..\..\..\..\Components\mac\low_level\srf04\"  #
#                          -I "C:\Texas Instruments\ZStack-CC2530-2.5.1a\Proj #
#                          ects\zstack\Samples\GenericApp-Broadcast-Test\CC25 #
#                          30DB\..\..\..\..\..\Components\mac\low_level\srf04 #
#                          \single_chip\" -I "C:\Texas                        #
#                          Instruments\ZStack-CC2530-2.5.1a\Projects\zstack\S #
#                          amples\GenericApp-Broadcast-Test\CC2530DB\..\..\.. #
#                          \..\..\Components\mt\" -I "C:\Texas                #
#                          Instruments\ZStack-CC2530-2.5.1a\Projects\zstack\S #
#                          amples\GenericApp-Broadcast-Test\CC2530DB\..\..\.. #
#                          \..\..\Components\osal\include\" -I "C:\Texas      #
#                          Instruments\ZStack-CC2530-2.5.1a\Projects\zstack\S #
#                          amples\GenericApp-Broadcast-Test\CC2530DB\..\..\.. #
#                          \..\..\Components\services\saddr\" -I "C:\Texas    #
#                          Instruments\ZStack-CC2530-2.5.1a\Projects\zstack\S #
#                          amples\GenericApp-Broadcast-Test\CC2530DB\..\..\.. #
#                          \..\..\Components\services\sdata\" -I "C:\Texas    #
#                          Instruments\ZStack-CC2530-2.5.1a\Projects\zstack\S #
#                          amples\GenericApp-Broadcast-Test\CC2530DB\..\..\.. #
#                          \..\..\Components\stack\af\" -I "C:\Texas          #
#                          Instruments\ZStack-CC2530-2.5.1a\Projects\zstack\S #
#                          amples\GenericApp-Broadcast-Test\CC2530DB\..\..\.. #
#                          \..\..\Components\stack\nwk\" -I "C:\Texas         #
#                          Instruments\ZStack-CC2530-2.5.1a\Projects\zstack\S #
#                          amples\GenericApp-Broadcast-Test\CC2530DB\..\..\.. #
#                          \..\..\Components\stack\sapi\" -I "C:\Texas        #
#                          Instruments\ZStack-CC2530-2.5.1a\Projects\zstack\S #
#                          amples\GenericApp-Broadcast-Test\CC2530DB\..\..\.. #
#                          \..\..\Components\stack\sec\" -I "C:\Texas         #
#                          Instruments\ZStack-CC2530-2.5.1a\Projects\zstack\S #
#                          amples\GenericApp-Broadcast-Test\CC2530DB\..\..\.. #
#                          \..\..\Components\stack\sys\" -I "C:\Texas         #
#                          Instruments\ZStack-CC2530-2.5.1a\Projects\zstack\S #
#                          amples\GenericApp-Broadcast-Test\CC2530DB\..\..\.. #
#                          \..\..\Components\stack\zdo\" -I "C:\Texas         #
#                          Instruments\ZStack-CC2530-2.5.1a\Projects\zstack\S #
#                          amples\GenericApp-Broadcast-Test\CC2530DB\..\..\.. #
#                          \..\..\Components\zmac\" -I "C:\Texas              #
#                          Instruments\ZStack-CC2530-2.5.1a\Projects\zstack\S #
#                          amples\GenericApp-Broadcast-Test\CC2530DB\..\..\.. #
#                          \..\..\Components\zmac\f8w\" -Ohz                  #
#                          --require_prototypes                               #
#    List file          =  C:\Texas Instruments\ZStack-CC2530-2.5.1a\Projects #
#                          \zstack\Samples\GenericApp-Broadcast-Test\CC2530DB #
#                          \EndDeviceEB\List\EndDevice.lst                    #
#    Object file        =  C:\Texas Instruments\ZStack-CC2530-2.5.1a\Projects #
#                          \zstack\Samples\GenericApp-Broadcast-Test\CC2530DB #
#                          \EndDeviceEB\Obj\EndDevice.r51                     #
#                                                                             #
#                                                                             #
###############################################################################

C:\Texas Instruments\ZStack-CC2530-2.5.1a\Projects\zstack\Samples\GenericApp-Broadcast-Test\Source\EndDevice.c
      1          
      2          /*********************************************************************
      3           * INCLUDES
      4           */
      5          #include "OSAL.h"
      6          #include "AF.h"
      7          #include "ZDApp.h"
      8          #include "ZDObject.h"
      9          #include "ZDProfile.h"
     10          
     11          #include "Coordinator.h"
     12          #include "DebugTrace.h"
     13          
     14          #if !defined( WIN32 )
     15            #include "OnBoard.h"
     16          #endif
     17          
     18          /* HAL */
     19          #include "hal_lcd.h"
     20          #include "hal_led.h"
     21          #include "hal_key.h"
     22          #include "hal_uart.h"
     23          
     24          
     25          /*********************************************************************
     26           * GLOBAL VARIABLES
     27           */
     28          // 群集列表

   \                                 In  segment XDATA_ROM_C, align 1
     29          const cId_t GenericApp_ClusterList[GENERICAPP_MAX_CLUSTERS] =
   \                     GenericApp_ClusterList:
   \   000000   0100         DW 1
     30          {
     31            GENERICAPP_CLUSTERID
     32          };
     33          
     34          // 简单描述符：描述端点

   \                                 In  segment XDATA_ROM_C, align 1
     35          const SimpleDescriptionFormat_t GenericApp_SimpleDesc =
   \                     GenericApp_SimpleDesc:
   \   000000   0A           DB 10
   \   000001   040F         DW 3844
   \   000003   0100         DW 1
   \   000005   00           DB 0
   \   000006   00           DB 0
   \   000007   0000         DW 0H
   \   000009   01           DB 1
   \   00000A   ....         DW GenericApp_ClusterList
     36          {
     37            GENERICAPP_ENDPOINT,              //  int Endpoint;
     38            GENERICAPP_PROFID,                //  uint16 AppProfId[2];
     39            GENERICAPP_DEVICEID,              //  uint16 AppDeviceId[2];
     40            GENERICAPP_DEVICE_VERSION,        //  int   AppDevVer:4;
     41            GENERICAPP_FLAGS,                 //  int   AppFlags:4;
     42            0,          //  byte  AppNumInClusters;
     43            (cId_t *)NULL,  //  byte *pAppInClusterList;
     44            GENERICAPP_MAX_CLUSTERS,          //  byte  AppNumInClusters;
     45            (cId_t *)GenericApp_ClusterList   //  byte *pAppInClusterList;
     46          };
     47          
     48          // 端点描述符

   \                                 In  segment XDATA_Z, align 1, keep-with-next
     49          endPointDesc_t GenericApp_epDesc;
   \                     GenericApp_epDesc:
   \   000000                DS 6
   \   000006                REQUIRE __INIT_XDATA_Z
     50          
     51          
     52          /*********************************************************************
     53           * LOCAL VARIABLES
     54           */
     55          // 任务ID，优先级

   \                                 In  segment XDATA_Z, align 1, keep-with-next
     56          byte GenericApp_TaskID; 
   \                     GenericApp_TaskID:
   \   000000                DS 1
   \   000001                REQUIRE __INIT_XDATA_Z
     57          
     58          // 设备状态

   \                                 In  segment XDATA_Z, align 1, keep-with-next
     59          devStates_t GenericApp_NwkState;
   \                     GenericApp_NwkState:
   \   000000                DS 1
   \   000001                REQUIRE __INIT_XDATA_Z
     60          
     61          
     62          /*********************************************************************
     63           * LOCAL FUNCTIONS
     64           */
     65          // 接收到消息后，进行消息处理
     66          static void GenericApp_MessageMSGCB( afIncomingMSGPacket_t *pckt );
     67          
     68          /*********************************************************************
     69           * @fn      GenericApp_Init
     70           *
     71           * @brief   Initialization function for the Generic App Task.
     72           *          This is called during initialization and should contain
     73           *          any application specific initialization (ie. hardware
     74           *          initialization/setup, table initialization, power up
     75           *          notificaiton ... ).
     76           *
     77           * @param   task_id - the ID assigned by OSAL.  This ID should be
     78           *                    used to send messages and set timers.
     79           *
     80           * @return  none
     81           */

   \                                 In  segment BANKED_CODE, align 1, keep-with-next
     82          void GenericApp_Init( uint8 task_id )
   \                     GenericApp_Init:
     83          {
   \   000000   74F7         MOV     A,#-0x9
   \   000002   12....       LCALL   ?BANKED_ENTER_XDATA
   \   000005                ; Saved register size: 9
   \   000005                ; Auto size: 0
   \   000005   E9           MOV     A,R1
     84            GenericApp_TaskID = task_id;
   \   000006   90....       MOV     DPTR,#GenericApp_TaskID
   \   000009   F0           MOVX    @DPTR,A
     85            
     86            GenericApp_NwkState = DEV_INIT;  // 设备未连接任何网络
   \   00000A   90....       MOV     DPTR,#GenericApp_NwkState
   \   00000D   7401         MOV     A,#0x1
   \   00000F   F0           MOVX    @DPTR,A
     87          
     88            // Fill out the endpoint description.
     89            GenericApp_epDesc.endPoint = GENERICAPP_ENDPOINT;
   \   000010   90....       MOV     DPTR,#GenericApp_epDesc
   \   000013   740A         MOV     A,#0xa
   \   000015   F0           MOVX    @DPTR,A
     90            GenericApp_epDesc.task_id = &GenericApp_TaskID;
   \   000016   A3           INC     DPTR
   \   000017   74..         MOV     A,#GenericApp_TaskID & 0xff
   \   000019   F0           MOVX    @DPTR,A
   \   00001A   A3           INC     DPTR
   \   00001B   74..         MOV     A,#(GenericApp_TaskID >> 8) & 0xff
   \   00001D   F0           MOVX    @DPTR,A
     91            GenericApp_epDesc.simpleDesc
     92                      = (SimpleDescriptionFormat_t *)&GenericApp_SimpleDesc;
   \   00001E   A3           INC     DPTR
   \   00001F   74..         MOV     A,#GenericApp_SimpleDesc & 0xff
   \   000021   F0           MOVX    @DPTR,A
   \   000022   A3           INC     DPTR
   \   000023   74..         MOV     A,#(GenericApp_SimpleDesc >> 8) & 0xff
   \   000025   F0           MOVX    @DPTR,A
     93            GenericApp_epDesc.latencyReq = noLatencyReqs;
   \   000026   A3           INC     DPTR
   \   000027   E4           CLR     A
   \   000028   F0           MOVX    @DPTR,A
     94          
     95            // Register the endpoint description with the AF
     96            afRegister( &GenericApp_epDesc );  //　没有注册不能使用OSAL提供的服务
   \   000029                ; Setup parameters for call to function afRegister
   \   000029   7A..         MOV     R2,#GenericApp_epDesc & 0xff
   \   00002B   7B..         MOV     R3,#(GenericApp_epDesc >> 8) & 0xff
   \   00002D   12....       LCALL   ??afRegister?relay
     97          
     98          }
   \   000030   7F01         MOV     R7,#0x1
   \   000032   02....       LJMP    ?BANKED_LEAVE_XDATA
     99          
    100          /*********************************************************************
    101           * @fn      GenericApp_ProcessEvent
    102           *
    103           * @brief   Generic Application Task event processor.  This function
    104           *          is called to process all events for the task.  Events
    105           *          include timers, messages and any other user defined events.
    106           *
    107           * @param   task_id  - The OSAL assigned task ID.
    108           * @param   events - events to process.  This is a bit map and can
    109           *                   contain more than one event.
    110           *
    111           * @return  none
    112           */

   \                                 In  segment BANKED_CODE, align 1, keep-with-next
    113          uint16 GenericApp_ProcessEvent( uint8 task_id, uint16 events )
   \                     GenericApp_ProcessEvent:
    114          {
   \   000000   74F4         MOV     A,#-0xc
   \   000002   12....       LCALL   ?BANKED_ENTER_XDATA
   \   000005                ; Saved register size: 12
   \   000005                ; Auto size: 0
   \   000005   8A..         MOV     ?V0 + 0,R2
   \   000007   8B..         MOV     ?V0 + 1,R3
    115            afIncomingMSGPacket_t *MSGpkt;  // 消息包指针
    116            
    117            if ( events & SYS_EVENT_MSG )   // 判断是否是系统事件
   \   000009   EB           MOV     A,R3
   \   00000A   5480         ANL     A,#0x80
   \   00000C   6036         JZ      ??GenericApp_ProcessEvent_0
    118            {
    119              MSGpkt = (afIncomingMSGPacket_t *)osal_msg_receive( GenericApp_TaskID );
   \   00000E                ; Setup parameters for call to function osal_msg_receive
   \   00000E   8017         SJMP    ??GenericApp_ProcessEvent_1
    120              while ( MSGpkt )
    121              {
    122                switch ( MSGpkt->hdr.event )
   \                     ??GenericApp_ProcessEvent_2:
   \   000010   8E82         MOV     DPL,R6
   \   000012   8F83         MOV     DPH,R7
   \   000014   E0           MOVX    A,@DPTR
   \   000015   641A         XRL     A,#0x1a
   \   000017   7007         JNZ     ??GenericApp_ProcessEvent_3
    123                {  
    124                  case AF_INCOMING_MSG_CMD:    //接收到无线数据
    125                    GenericApp_MessageMSGCB(MSGpkt);  // 处理消息
   \   000019                ; Setup parameters for call to function GenericApp_MessageMSGCB
   \   000019   EE           MOV     A,R6
   \   00001A   FA           MOV     R2,A
   \   00001B   EF           MOV     A,R7
   \   00001C   FB           MOV     R3,A
   \   00001D   12....       LCALL   ??GenericApp_MessageMSGCB?relay
    126                    break;
    127                  default:
    128                    break;
    129                }
    130          
    131                // Release the memory
    132                osal_msg_deallocate( (uint8 *)MSGpkt );  // 释放消息空间，防止内存泄漏
   \                     ??GenericApp_ProcessEvent_3:
   \   000020                ; Setup parameters for call to function osal_msg_deallocate
   \   000020   EE           MOV     A,R6
   \   000021   FA           MOV     R2,A
   \   000022   EF           MOV     A,R7
   \   000023   FB           MOV     R3,A
   \   000024   12....       LCALL   ??osal_msg_deallocate?relay
    133          
    134                // Next
    135                MSGpkt = (afIncomingMSGPacket_t *)osal_msg_receive( GenericApp_TaskID );
   \   000027                ; Setup parameters for call to function osal_msg_receive
   \                     ??GenericApp_ProcessEvent_1:
   \   000027   90....       MOV     DPTR,#GenericApp_TaskID
   \   00002A   E0           MOVX    A,@DPTR
   \   00002B   F9           MOV     R1,A
   \   00002C   12....       LCALL   ??osal_msg_receive?relay
   \   00002F   8A..         MOV     ?V0 + 2,R2
   \   000031   8B..         MOV     ?V0 + 3,R3
   \   000033   AE..         MOV     R6,?V0 + 2
   \   000035   AF..         MOV     R7,?V0 + 3
    136              }
   \   000037   EE           MOV     A,R6
   \   000038   4F           ORL     A,R7
   \   000039   70D5         JNZ     ??GenericApp_ProcessEvent_2
    137          
    138              // return unprocessed events
    139              return (events ^ SYS_EVENT_MSG);   // 返回其他未处理的消息
   \   00003B   AA..         MOV     R2,?V0 + 0
   \   00003D   E5..         MOV     A,?V0 + 1
   \   00003F   6480         XRL     A,#0x80
   \   000041   FB           MOV     R3,A
   \   000042   8004         SJMP    ??GenericApp_ProcessEvent_4
    140            }
    141            // Discard unknown events
    142            return 0;
   \                     ??GenericApp_ProcessEvent_0:
   \   000044   7A00         MOV     R2,#0x0
   \   000046   7B00         MOV     R3,#0x0
   \                     ??GenericApp_ProcessEvent_4:
   \   000048   7F04         MOV     R7,#0x4
   \   00004A   02....       LJMP    ?BANKED_LEAVE_XDATA
    143          }
    144          
    145          
    146          

   \                                 In  segment BANKED_CODE, align 1, keep-with-next
    147          static void GenericApp_MessageMSGCB( afIncomingMSGPacket_t *pckt )
   \                     GenericApp_MessageMSGCB:
    148          {
   \   000000   74F5         MOV     A,#-0xb
   \   000002   12....       LCALL   ?BANKED_ENTER_XDATA
   \   000005                ; Saved register size: 11
   \   000005                ; Auto size: 50
   \   000005   74CE         MOV     A,#-0x32
   \   000007   12....       LCALL   ?ALLOC_XSTACK8
    149            char buf[50] = {0};
   \   00000A   85..82       MOV     DPL,?XSP + 0
   \   00000D   85..83       MOV     DPH,?XSP + 1
   \   000010   AC82         MOV     R4,DPL
   \   000012   AD83         MOV     R5,DPH
   \   000014   7583..       MOV     DPH,#(`?<Constant {0}>` >> 8) & 0xff
   \   000017   7582..       MOV     DPL,#`?<Constant {0}>` & 0xff
   \   00001A   7432         MOV     A,#0x32
   \   00001C   12....       LCALL   ?MOVE_LONG8_XDATA_XDATA
    150             switch ( pckt->clusterId )
   \   00001F   8A82         MOV     DPL,R2
   \   000021   8B83         MOV     DPH,R3
   \   000023   A3           INC     DPTR
   \   000024   A3           INC     DPTR
   \   000025   A3           INC     DPTR
   \   000026   A3           INC     DPTR
   \   000027   E0           MOVX    A,@DPTR
   \   000028   6401         XRL     A,#0x1
   \   00002A   7002         JNZ     ??GenericApp_MessageMSGCB_0
   \   00002C   A3           INC     DPTR
   \   00002D   E0           MOVX    A,@DPTR
   \                     ??GenericApp_MessageMSGCB_0:
   \   00002E   7060         JNZ     ??GenericApp_MessageMSGCB_1
    151            {
    152              case GENERICAPP_CLUSTERID:  // 判断是否是指定的命令
    153                osal_memcpy(buf, pckt->cmd.Data, 10);
   \   000030                ; Setup parameters for call to function osal_memcpy
   \   000030   EA           MOV     A,R2
   \   000031   2422         ADD     A,#0x22
   \   000033   F582         MOV     DPL,A
   \   000035   EB           MOV     A,R3
   \   000036   3400         ADDC    A,#0x0
   \   000038   F583         MOV     DPH,A
   \   00003A   E0           MOVX    A,@DPTR
   \   00003B   F5..         MOV     ?V0 + 0,A
   \   00003D   A3           INC     DPTR
   \   00003E   E0           MOVX    A,@DPTR
   \   00003F   F5..         MOV     ?V0 + 1,A
   \   000041   75..00       MOV     ?V0 + 2,#0x0
   \   000044   78..         MOV     R0,#?V0 + 0
   \   000046   12....       LCALL   ?PUSH_XSTACK_I_THREE
   \   000049   7C0A         MOV     R4,#0xa
   \   00004B   7D00         MOV     R5,#0x0
   \   00004D   7403         MOV     A,#0x3
   \   00004F   12....       LCALL   ?XSTACK_DISP0_8
   \   000052   AA82         MOV     R2,DPL
   \   000054   AB83         MOV     R3,DPH
   \   000056   12....       LCALL   ??osal_memcpy?relay
   \   000059   7403         MOV     A,#0x3
   \   00005B   12....       LCALL   ?DEALLOC_XSTACK8
    154            
    155                if (osal_memcmp(buf, "0123456789", 10))
   \   00005E                ; Setup parameters for call to function osal_memcmp
   \   00005E   75....       MOV     ?V0 + 0,#`?<Constant "0123456789">` & 0xff
   \   000061   75....       MOV     ?V0 + 1,#(`?<Constant "0123456789">` >> 8) & 0xff
   \   000064   78..         MOV     R0,#?V0 + 0
   \   000066   12....       LCALL   ?PUSH_XSTACK_I_THREE
   \   000069   7C0A         MOV     R4,#0xa
   \   00006B   7D00         MOV     R5,#0x0
   \   00006D   7403         MOV     A,#0x3
   \   00006F   12....       LCALL   ?XSTACK_DISP0_8
   \   000072   A982         MOV     R1,DPL
   \   000074   AA83         MOV     R2,DPH
   \   000076   7B00         MOV     R3,#0x0
   \   000078   12....       LCALL   ??osal_memcmp?relay
   \   00007B   7403         MOV     A,#0x3
   \   00007D   12....       LCALL   ?DEALLOC_XSTACK8
   \   000080   E9           MOV     A,R1
   \   000081   600D         JZ      ??GenericApp_MessageMSGCB_1
    156                {
    157                  HalLedBlink(HAL_LED_ALL, 5, 50, 200);
   \   000083                ; Setup parameters for call to function HalLedBlink
   \   000083   7CC8         MOV     R4,#-0x38
   \   000085   7D00         MOV     R5,#0x0
   \   000087   7B32         MOV     R3,#0x32
   \   000089   7A05         MOV     R2,#0x5
   \   00008B   790F         MOV     R1,#0xf
   \   00008D   12....       LCALL   ??HalLedBlink?relay
    158                }
    159                break;
    160              default:
    161                break;
    162            }
    163          }
   \                     ??GenericApp_MessageMSGCB_1:
   \   000090   7432         MOV     A,#0x32
   \   000092   12....       LCALL   ?DEALLOC_XSTACK8
   \   000095   7F03         MOV     R7,#0x3
   \   000097   02....       LJMP    ?BANKED_LEAVE_XDATA

   \                                 In  segment BANK_RELAYS, align 1
   \                     ??GenericApp_Init?relay:
   \   000000   12....       LCALL   ?BDISPATCH
   \   000003   ......       DC24    GenericApp_Init

   \                                 In  segment BANK_RELAYS, align 1
   \                     ??GenericApp_ProcessEvent?relay:
   \   000000   12....       LCALL   ?BDISPATCH
   \   000003   ......       DC24    GenericApp_ProcessEvent

   \                                 In  segment BANK_RELAYS, align 1
   \                     ??GenericApp_MessageMSGCB?relay:
   \   000000   12....       LCALL   ?BDISPATCH
   \   000003   ......       DC24    GenericApp_MessageMSGCB

   \                                 In  segment XDATA_ROM_C, align 1
   \                     `?<Constant {0}>`:
   \   000000   00           DB 0
   \   000001   00000000     DB 0, 0, 0, 0, 0, 0, 0, 0
   \            00000000
   \   000009   00000000     DB 0, 0, 0, 0, 0, 0, 0, 0
   \            00000000
   \   000011   00000000     DB 0, 0, 0, 0, 0, 0, 0, 0
   \            00000000
   \   000019   00000000     DB 0, 0, 0, 0, 0, 0, 0, 0
   \            00000000
   \   000021   00000000     DB 0, 0, 0, 0, 0, 0, 0, 0
   \            00000000
   \   000029   00000000     DB 0, 0, 0, 0, 0, 0, 0, 0
   \            00000000
   \   000031   00           DB 0

   \                                 In  segment XDATA_ROM_C, align 1
   \                     `?<Constant "0123456789">`:
   \   000000   30313233     DB "0123456789"
   \            34353637
   \            383900  

   Maximum stack usage in bytes:

     Function                     ISTACK PSTACK XSTACK
     --------                     ------ ------ ------
     GenericApp_Init                  0      0      9
       -> afRegister                  0      0     18
     GenericApp_MessageMSGCB          2      0     76
       -> osal_memcpy                 0      0    128
       -> osal_memcmp                 0      0    128
       -> HalLedBlink                 0      0    122
     GenericApp_ProcessEvent          0      0     12
       -> osal_msg_receive            0      0     24
       -> GenericApp_MessageMSGCB     0      0     24
       -> osal_msg_deallocate         0      0     24
       -> osal_msg_receive            0      0     24


   Segment part sizes:

     Function/Label                  Bytes
     --------------                  -----
     GenericApp_ClusterList             2
     GenericApp_SimpleDesc             12
     GenericApp_epDesc                  6
     GenericApp_TaskID                  1
     GenericApp_NwkState                1
     GenericApp_Init                   53
     GenericApp_ProcessEvent           77
     GenericApp_MessageMSGCB          154
     ??GenericApp_Init?relay            6
     ??GenericApp_ProcessEvent?relay    6
     ??GenericApp_MessageMSGCB?relay    6
     ?<Constant {0}>                   50
     ?<Constant "0123456789">          11

 
 284 bytes in segment BANKED_CODE
  18 bytes in segment BANK_RELAYS
  75 bytes in segment XDATA_ROM_C
   8 bytes in segment XDATA_Z
 
 302 bytes of CODE  memory
  75 bytes of CONST memory
   8 bytes of XDATA memory

Errors: none
Warnings: none
